 game_shader_generic_deferred

 Timestamp is 65ce9345 (Thu Feb 15 23:42:13 2024)

 Preferred load address is 10000000

 Start         Length     Name                   Class
 0001:00000000 0001be6cH .text                   CODE
 0001:0001be70 00000e35H .text$yc                CODE
 0001:0001ccb0 000001beH .text$yd                CODE
 0002:00000000 00000128H .idata$5                DATA
 0002:00000128 00000004H .CRT$XCA                DATA
 0002:0000012c 000001b4H .CRT$XCU                DATA
 0002:000002e0 00000004H .CRT$XCZ                DATA
 0002:000002e4 00000004H .CRT$XIA                DATA
 0002:000002e8 00000014H .CRT$XIC                DATA
 0002:000002fc 00000004H .CRT$XIZ                DATA
 0002:00000300 00000004H .CRT$XPA                DATA
 0002:00000304 00000004H .CRT$XPX                DATA
 0002:00000308 00000004H .CRT$XPXA               DATA
 0002:0000030c 00000004H .CRT$XPZ                DATA
 0002:00000310 00000004H .CRT$XTA                DATA
 0002:00000314 00000004H .CRT$XTZ                DATA
 0002:00000320 00018c58H .rdata                  DATA
 0002:00018f78 0000008dH .rdata$debug            DATA
 0002:00019008 00000d44H .rdata$r                DATA
 0002:00019d50 0000000cH .rdata$sxdata           DATA
 0002:00019d5c 00000004H .rtc$IAA                DATA
 0002:00019d60 00000004H .rtc$IZZ                DATA
 0002:00019d64 00000004H .rtc$TAA                DATA
 0002:00019d68 00000004H .rtc$TZZ                DATA
 0002:00019d70 00000384H .xdata$x                DATA
 0002:0001a0f4 00000028H .idata$2                DATA
 0002:0001a11c 00000014H .idata$3                DATA
 0002:0001a130 00000128H .idata$4                DATA
 0002:0001a258 00000530H .idata$6                DATA
 0002:0001a790 00000063H .edata                  DATA
 0003:00000000 00002eacH .data                   DATA
 0003:00002ec0 00013ae4H .bss                    DATA

  Address         Publics by Value              Rva+Base       Lib:Object

 0000:00000000       __except_list              00000000     <absolute>
 0000:00000003       ___safe_se_handler_count   00000003     <absolute>
 0000:00000000       ___ImageBase               10000000     <linker-defined>
 0001:00000000       ?LoadViewMatrixIntoVertexShaderConstant@CBaseVSShader@@QAEXH@Z 10001000 f   BaseVSShader.obj
 0001:00000050       ?SetHWMorphVertexShaderState@CBaseVSShader@@QAEXHHW4VertexTextureSampler_t@@@Z 10001050 f   BaseVSShader.obj
 0001:00000160       ?GetName@CShader@GAUSSIAN_BLUR_6@@UBEPBDXZ 10001160 f i blur.obj
 0001:00000170       ?GetFlags@CShader@GAUSSIAN_BLUR_6@@UBEHXZ 10001170 f i blur.obj
 0001:00000180       ?OnDrawElements@CShader@GAUSSIAN_BLUR_6@@UAEXPAPAVIMaterialVar@@PAVIShaderShadow@@PAVIShaderDynamicAPI@@W4VertexCompressionType_t@@PAPAVCBasePerMaterialContextData@@@Z 10001180 f i blur.obj
 0001:000002b0       ?GetParamCount@CShader@GAUSSIAN_BLUR_6@@UBEHXZ 100012b0 f i blur.obj
 0001:000002c0       ?GetParamInfo@CShader@GAUSSIAN_BLUR_6@@UBEABUShaderParamInfo_t@@H@Z 100012c0 f i blur.obj
 0001:000002f0       ??0CShaderParam@GAUSSIAN_BLUR_6@@QAE@PBDW4ShaderParamType_t@@00H@Z 100012f0 f i blur.obj
 0001:00000390       ?GetName@CShader@DEBUG_LIGHTING_CTRL@@UBEPBDXZ 10001390 f i debug_lightingctrl.obj
 0001:000003a0       ?GetFlags@CShader@DEBUG_LIGHTING_CTRL@@UBEHXZ 100013a0 f i debug_lightingctrl.obj
 0001:000003b0       ?OnInitShaderInstance@CShader@RADIOSITY_BLEND@@UAEXPAPAVIMaterialVar@@PAVIShaderInit@@PBD@Z 100013b0 f i radiosity_blend.obj
 0001:000003b0       ?OnInitShaderInstance@CShader@RADIOSITY_GLOBAL@@UAEXPAPAVIMaterialVar@@PAVIShaderInit@@PBD@Z 100013b0 f i radiosity_global.obj
 0001:000003b0       ?OnInitShaderInstance@CShader@SCREENSPACE_SHADING@@UAEXPAPAVIMaterialVar@@PAVIShaderInit@@PBD@Z 100013b0 f i screenspace_shading.obj
 0001:000003b0       ?OnInitShaderInstance@CShader@LIGHTING_GLOBAL@@UAEXPAPAVIMaterialVar@@PAVIShaderInit@@PBD@Z 100013b0 f i lighting_global.obj
 0001:000003b0       ?OnInitShaderInstance@CShader@DEBUG_LIGHTING_CTRL@@UAEXPAPAVIMaterialVar@@PAVIShaderInit@@PBD@Z 100013b0 f i debug_lightingctrl.obj
 0001:000003b0       ?OnInitShaderInstance@CShader@VOLUME_PREPASS@@UAEXPAPAVIMaterialVar@@PAVIShaderInit@@PBD@Z 100013b0 f i volume_prepass.obj
 0001:000003b0       ?OnInitShaderInstance@CShader@SCREENSPACE_COMBINE@@UAEXPAPAVIMaterialVar@@PAVIShaderInit@@PBD@Z 100013b0 f i screenspace_combine.obj
 0001:000003b0       ?OnInitShaderInstance@CShader@DEBUG_SHADOW@@UAEXPAPAVIMaterialVar@@PAVIShaderInit@@PBD@Z 100013b0 f i debug_shadow.obj
 0001:000003b0       ?OnInitShaderInstance@CShader@DEBUG_RADIOSITY_GRID@@UAEXPAPAVIMaterialVar@@PAVIShaderInit@@PBD@Z 100013b0 f i debug_radiosity_grid.obj
 0001:000003c0       ?OnDrawElements@CShader@DEBUG_LIGHTING_CTRL@@UAEXPAPAVIMaterialVar@@PAVIShaderShadow@@PAVIShaderDynamicAPI@@W4VertexCompressionType_t@@PAPAVCBasePerMaterialContextData@@@Z 100013c0 f i debug_lightingctrl.obj
 0001:00000500       ?GetParamCount@CShader@DEBUG_LIGHTING_CTRL@@UBEHXZ 10001500 f i debug_lightingctrl.obj
 0001:00000510       ?GetParamInfo@CShader@DEBUG_LIGHTING_CTRL@@UBEABUShaderParamInfo_t@@H@Z 10001510 f i debug_lightingctrl.obj
 0001:00000540       ?GetName@CShader@DEBUG_RADIOSITY_GRID@@UBEPBDXZ 10001540 f i debug_radiosity_grid.obj
 0001:00000550       ?GetFlags@CShader@DEBUG_RADIOSITY_GRID@@UBEHXZ 10001550 f i debug_radiosity_grid.obj
 0001:00000560       ?OnDrawElements@CShader@DEBUG_RADIOSITY_GRID@@UAEXPAPAVIMaterialVar@@PAVIShaderShadow@@PAVIShaderDynamicAPI@@W4VertexCompressionType_t@@PAPAVCBasePerMaterialContextData@@@Z 10001560 f i debug_radiosity_grid.obj
 0001:00000610       ?GetParamCount@CShader@DEBUG_RADIOSITY_GRID@@UBEHXZ 10001610 f i debug_radiosity_grid.obj
 0001:00000620       ?GetParamInfo@CShader@DEBUG_RADIOSITY_GRID@@UBEABUShaderParamInfo_t@@H@Z 10001620 f i debug_radiosity_grid.obj
 0001:00000650       ?GetName@CShader@DEBUG_SHADOW@@UBEPBDXZ 10001650 f i debug_shadow.obj
 0001:00000660       ?GetFlags@CShader@DEBUG_SHADOW@@UBEHXZ 10001660 f i debug_shadow.obj
 0001:00000670       ?OnDrawElements@CShader@DEBUG_SHADOW@@UAEXPAPAVIMaterialVar@@PAVIShaderShadow@@PAVIShaderDynamicAPI@@W4VertexCompressionType_t@@PAPAVCBasePerMaterialContextData@@@Z 10001670 f i debug_shadow.obj
 0001:00000900       ?GetParamCount@CShader@DEBUG_SHADOW@@UBEHXZ 10001900 f i debug_shadow.obj
 0001:00000910       ?GetParamInfo@CShader@DEBUG_SHADOW@@UBEABUShaderParamInfo_t@@H@Z 10001910 f i debug_shadow.obj
 0001:00000940       ??_GCBasePerMaterialContextData@@UAEPAXI@Z 10001940 f i deferred_brush.obj
 0001:00000940       ??_ECBasePerMaterialContextData@@UAEPAXI@Z 10001940 f i deferred_brush.obj
 0001:00000970       ??_ECDeferredPerMaterialContextData@@UAEPAXI@Z 10001970 f i deferred_brush.obj
 0001:00000970       ??_GCDeferredPerMaterialContextData@@UAEPAXI@Z 10001970 f i deferred_brush.obj
 0001:000009d0       ?SetupParmsGBuffer@CShader@DEFERRED_BRUSH@@QAEXAAUdefParms_gBuffer@@@Z 100019d0 f i deferred_brush.obj
 0001:00000a80       ?SetupParmsComposite@CShader@DEFERRED_BRUSH@@QAEXAAUdefParms_composite@@@Z 10001a80 f i deferred_brush.obj
 0001:00000b70       ?OnInitShaderParams@CShader@DEFERRED_BRUSH@@UAEXPAPAVIMaterialVar@@PBD@Z 10001b70 f i deferred_brush.obj
 0001:00000ca0       ?GetName@CShader@DEFERRED_BRUSH@@UBEPBDXZ 10001ca0 f i deferred_brush.obj
 0001:00000cb0       ?GetFlags@CShader@DEFERRED_BRUSH@@UBEHXZ 10001cb0 f i deferred_brush.obj
 0001:00000cc0       ?OnInitShaderInstance@CShader@DEFERRED_BRUSH@@UAEXPAPAVIMaterialVar@@PAVIShaderInit@@PBD@Z 10001cc0 f i deferred_brush.obj
 0001:00000dc0       ?GetFallbackShader@CShader@DEFERRED_BRUSH@@UBEPBDPAPAVIMaterialVar@@@Z 10001dc0 f i deferred_brush.obj
 0001:00000e40       ?OnDrawElements@CShader@DEFERRED_BRUSH@@UAEXPAPAVIMaterialVar@@PAVIShaderShadow@@PAVIShaderDynamicAPI@@W4VertexCompressionType_t@@PAPAVCBasePerMaterialContextData@@@Z 10001e40 f i deferred_brush.obj
 0001:00001020       ?GetParamCount@CShader@DEFERRED_BRUSH@@UBEHXZ 10002020 f i deferred_brush.obj
 0001:00001030       ?GetParamInfo@CShader@DEFERRED_BRUSH@@UBEABUShaderParamInfo_t@@H@Z 10002030 f i deferred_brush.obj
 0001:00001060       ??0CShaderParam@DEFERRED_BRUSH@@QAE@PBDW4ShaderParamType_t@@00H@Z 10002060 f i deferred_brush.obj
 0001:00001100       ??0decalmodulate_vs20_Static_Index@@QAE@PAVIShaderShadow@@PAPAVIMaterialVar@@@Z 10002100 f i deferred_decalModulate.obj
 0001:00001150       ??0decalmodulate_vs30_Dynamic_Index@@QAE@PAVIShaderDynamicAPI@@@Z 10002150 f i deferred_decalModulate.obj
 0001:000011a0       ?OnInitShaderParams@CShader@DEFERRED_DECALMODULATE@@UAEXPAPAVIMaterialVar@@PBD@Z 100021a0 f i deferred_decalModulate.obj
 0001:00001250       ?GetName@CShader@DEFERRED_DECALMODULATE@@UBEPBDXZ 10002250 f i deferred_decalModulate.obj
 0001:00001260       ?GetFlags@CShader@DEFERRED_DECALMODULATE@@UBEHXZ 10002260 f i deferred_decalModulate.obj
 0001:00001270       ?OnInitShaderInstance@CShader@DEFERRED_DECALMODULATE@@UAEXPAPAVIMaterialVar@@PAVIShaderInit@@PBD@Z 10002270 f i deferred_decalModulate.obj
 0001:00001280       ?OnDrawElements@CShader@DEFERRED_DECALMODULATE@@UAEXPAPAVIMaterialVar@@PAVIShaderShadow@@PAVIShaderDynamicAPI@@W4VertexCompressionType_t@@PAPAVCBasePerMaterialContextData@@@Z 10002280 f i deferred_decalModulate.obj
 0001:00001880       ?GetParamCount@CShader@DEFERRED_DECALMODULATE@@UBEHXZ 10002880 f i deferred_decalModulate.obj
 0001:00001890       ?Grow@?$CUtlMemory@PAVCShaderParam@DEFERRED_DECALMODULATE@@H@@QAEXH@Z 10002890 f i deferred_decalModulate.obj
 0001:00001890       ?Grow@?$CUtlMemory@PAVCShaderParam@LIGHTING_VOLUME@@H@@QAEXH@Z 10002890 f i lighting_volume.obj
 0001:00001890       ?Grow@?$CUtlMemory@PAVCShaderParam@DEFERRED_MODEL@@H@@QAEXH@Z 10002890 f i deferred_model.obj
 0001:00001890       ?Grow@?$CUtlMemory@PAVIShader@@H@@QAEXH@Z 10002890 f i shaderlib:ShaderDLL.obj
 0001:00001890       ?Grow@?$CUtlMemory@PAVCShaderParam@RADIOSITY_PROPAGATE@@H@@QAEXH@Z 10002890 f i radiosity_propagate.obj
 0001:00001890       ?Grow@?$CUtlMemory@PAVCShaderParam@LIGHTING_WORLD@@H@@QAEXH@Z 10002890 f i lighting_world.obj
 0001:00001890       ?Grow@?$CUtlMemory@PAVCShaderParam@DEFERRED_BRUSH@@H@@QAEXH@Z 10002890 f i deferred_brush.obj
 0001:00001890       ?Grow@?$CUtlMemory@PAVCShaderParam@GAUSSIAN_BLUR_6@@H@@QAEXH@Z 10002890 f i blur.obj
 0001:00001920       ?GetParamInfo@CShader@DEFERRED_DECALMODULATE@@UBEABUShaderParamInfo_t@@H@Z 10002920 f i deferred_decalModulate.obj
 0001:00001950       ??0CShaderParam@DEFERRED_DECALMODULATE@@QAE@PBDW4ShaderParamType_t@@00H@Z 10002950 f i deferred_decalModulate.obj
 0001:000019f0       ?SetupParmsComposite@CShader@DEFERRED_MODEL@@QAEXAAUdefParms_composite@@@Z 100029f0 f i deferred_model.obj
 0001:00001ab0       ?OnInitShaderParams@CShader@DEFERRED_MODEL@@UAEXPAPAVIMaterialVar@@PBD@Z 10002ab0 f i deferred_model.obj
 0001:00001be0       ?GetName@CShader@DEFERRED_MODEL@@UBEPBDXZ 10002be0 f i deferred_model.obj
 0001:00001bf0       ?GetFlags@CShader@DEFERRED_MODEL@@UBEHXZ 10002bf0 f i deferred_model.obj
 0001:00001c00       ?OnInitShaderInstance@CShader@DEFERRED_MODEL@@UAEXPAPAVIMaterialVar@@PAVIShaderInit@@PBD@Z 10002c00 f i deferred_model.obj
 0001:00001d00       ?GetFallbackShader@CShader@DEFERRED_MODEL@@UBEPBDPAPAVIMaterialVar@@@Z 10002d00 f i deferred_model.obj
 0001:00001d40       ?OnDrawElements@CShader@DEFERRED_MODEL@@UAEXPAPAVIMaterialVar@@PAVIShaderShadow@@PAVIShaderDynamicAPI@@W4VertexCompressionType_t@@PAPAVCBasePerMaterialContextData@@@Z 10002d40 f i deferred_model.obj
 0001:00001f20       ?GetParamCount@CShader@DEFERRED_MODEL@@UBEHXZ 10002f20 f i deferred_model.obj
 0001:00001f30       ?GetParamInfo@CShader@DEFERRED_MODEL@@UBEABUShaderParamInfo_t@@H@Z 10002f30 f i deferred_model.obj
 0001:00001f60       ??0CShaderParam@DEFERRED_MODEL@@QAE@PBDW4ShaderParamType_t@@00H@Z 10002f60 f i deferred_model.obj
 0001:00002000       ?GetTexcoordSettings@@YAX_N0AAHPAPAH@Z 10003000 f   deferred_utility.obj
 0001:00002050       ?SetCommands@CDeferredPerMaterialContextData@@QAEXW4DefStage_t@1@PAE@Z 10003050 f i defpass_composite.obj
 0001:000020e0       ?GetIndex@composite_ps30_Static_Index@@QAEHXZ 100030e0 f i defpass_composite.obj
 0001:00002140       ?InitParmsComposite@@YAXABUdefParms_composite@@PAVCBaseVSShader@@PAPAVIMaterialVar@@@Z 10003140 f   defpass_composite.obj
 0001:000023f0       ?InitPassComposite@@YAXABUdefParms_composite@@PAVCBaseVSShader@@PAPAVIMaterialVar@@@Z 100033f0 f   defpass_composite.obj
 0001:00002560       ?SetVertexShaderTextureTransform@?$CCommandBufferBuilder@V?$CFixedCommandStorageBuffer@$0CAA@@@@@QAEXHH@Z 10003560 f i defpass_composite.obj
 0001:00002640       ?DrawPassComposite@@YAXABUdefParms_composite@@PAVCBaseVSShader@@PAPAVIMaterialVar@@PAVIShaderShadow@@PAVIShaderDynamicAPI@@W4VertexCompressionType_t@@PAVCDeferredPerMaterialContextData@@@Z 10003640 f   defpass_composite.obj
 0001:00003e40       ?InitParmsGBuffer@@YAXABUdefParms_gBuffer@@PAVCBaseVSShader@@PAPAVIMaterialVar@@@Z 10004e40 f   defpass_gbuffer.obj
 0001:00003f00       ?InitPassGBuffer@@YAXABUdefParms_gBuffer@@PAVCBaseVSShader@@PAPAVIMaterialVar@@@Z 10004f00 f   defpass_gbuffer.obj
 0001:00004050       ?DrawPassGBuffer@@YAXABUdefParms_gBuffer@@PAVCBaseVSShader@@PAPAVIMaterialVar@@PAVIShaderShadow@@PAVIShaderDynamicAPI@@W4VertexCompressionType_t@@PAVCDeferredPerMaterialContextData@@@Z 10005050 f   defpass_gbuffer.obj
 0001:00005200       ?InitParmsShadowPass@@YAXABUdefParms_shadow@@PAVCBaseVSShader@@PAPAVIMaterialVar@@@Z 10006200 f   defpass_shadow.obj
 0001:00005260       ?InitPassShadowPass@@YAXABUdefParms_shadow@@PAVCBaseVSShader@@PAPAVIMaterialVar@@@Z 10006260 f   defpass_shadow.obj
 0001:00005300       ?DrawPassShadowPass@@YAXABUdefParms_shadow@@PAVCBaseVSShader@@PAPAVIMaterialVar@@PAVIShaderShadow@@PAVIShaderDynamicAPI@@W4VertexCompressionType_t@@PAVCDeferredPerMaterialContextData@@@Z 10006300 f   defpass_shadow.obj
 0001:00005ce0       ?EnableDeferredLighting@CDeferredExtension@@UAEXXZ 10006ce0 f   IDeferredExt.obj
 0001:00005cf0       ?IsDeferredLightingEnabled@CDeferredExtension@@QAE_NXZ 10006cf0 f   IDeferredExt.obj
 0001:00005d00       ?CommitOrigin@CDeferredExtension@@UAEXABVVector@@@Z 10006d00 f   IDeferredExt.obj
 0001:00005d20       ?CommitViewForward@CDeferredExtension@@UAEXABVVector@@@Z 10006d20 f   IDeferredExt.obj
 0001:00005d40       ?CommitZDists@CDeferredExtension@@UAEXABM0@Z 10006d40 f   IDeferredExt.obj
 0001:00005d60       ?CommitZScale@CDeferredExtension@@UAEXABM@Z 10006d60 f   IDeferredExt.obj
 0001:00005d70       ?CommitFrustumDeltas@CDeferredExtension@@UAEXABVVMatrix@@@Z 10006d70 f   IDeferredExt.obj
 0001:00005d80       ??4shadowData_ortho_t@@QAEAAU0@ABU0@@Z 10006d80 f i IDeferredExt.obj
 0001:00005df0       ?CommitShadowData_General@CDeferredExtension@@UAEXABUshadowData_general_t@@@Z 10006df0 f   IDeferredExt.obj
 0001:00005e20       ?CommitVolumeData@CDeferredExtension@@UAEXABUvolumeData_t@@@Z 10006e20 f   IDeferredExt.obj
 0001:00005e60       ??4lightData_Global_t@@QAEAAU0@ABU0@@Z 10006e60 f i IDeferredExt.obj
 0001:00005e60       ??0lightData_Global_t@@QAE@ABU0@@Z 10006e60 f i lighting_global.obj
 0001:00005ef0       ?CommitLightData_Common@CDeferredExtension@@UAEPAMPAMHHHHH@Z 10006ef0 f   IDeferredExt.obj
 0001:00005f40       ?CommitTexture_General@CDeferredExtension@@UAEXPAVITexture@@00@Z 10006f40 f   IDeferredExt.obj
 0001:00005f70       ?CommitTexture_CascadedDepth@CDeferredExtension@@UAEXABHPAVITexture@@@Z 10006f70 f   IDeferredExt.obj
 0001:00005f90       ?CommitTexture_DualParaboloidDepth@CDeferredExtension@@UAEXABHPAVITexture@@@Z 10006f90 f   IDeferredExt.obj
 0001:00005fb0       ?CommitTexture_ProjectedDepth@CDeferredExtension@@UAEXABHPAVITexture@@@Z 10006fb0 f   IDeferredExt.obj
 0001:00005fd0       ?CommitTexture_Cookie@CDeferredExtension@@UAEXABHPAVITexture@@@Z 10006fd0 f   IDeferredExt.obj
 0001:00005ff0       ?CommitTexture_VolumePrePass@CDeferredExtension@@UAEXPAVITexture@@@Z 10006ff0 f   IDeferredExt.obj
 0001:00006000       ?CommitTexture_ShadowRadOutput_Ortho@CDeferredExtension@@UAEXPAVITexture@@0@Z 10007000 f   IDeferredExt.obj
 0001:00006020       ?CommitTexture_Radiosity@CDeferredExtension@@UAEXPAVITexture@@000@Z 10007020 f   IDeferredExt.obj
 0001:00006050       ?IsRadiosityEnabled@CDeferredExtension@@QAE_NXZ 10007050 f   IDeferredExt.obj
 0001:00006090       ?CommitShadowData_Ortho@CDeferredExtension@@UAEXABHABUshadowData_ortho_t@@@Z 10007090 f   IDeferredExt.obj
 0001:000060b0       ?CommitShadowData_Proj@CDeferredExtension@@UAEXABHABUshadowData_proj_t@@@Z 100070b0 f   IDeferredExt.obj
 0001:00006120       ?CommitRadiosityData@CDeferredExtension@@UAEXABUradiosityData_t@@@Z 10007120 f   IDeferredExt.obj
 0001:00006160       ?CommitLightData_Global@CDeferredExtension@@UAEXABUlightData_Global_t@@@Z 10007160 f   IDeferredExt.obj
 0001:00006170       ??0CDeferredExtension@@QAE@XZ 10007170 f   IDeferredExt.obj
 0001:000062e0       ??_ECDeferredExtension@@UAEPAXI@Z 100072e0 f i IDeferredExt.obj
 0001:000062e0       ??_GIBaseInterface@@UAEPAXI@Z 100072e0 f i IDeferredExt.obj
 0001:000062e0       ??_EIBaseInterface@@UAEPAXI@Z 100072e0 f i IDeferredExt.obj
 0001:000062e0       ??_GCDeferredExtension@@UAEPAXI@Z 100072e0 f i IDeferredExt.obj
 0001:00006310       ?GetName@CShader@LIGHTING_GLOBAL@@UBEPBDXZ 10007310 f i lighting_global.obj
 0001:00006320       ?GetFlags@CShader@LIGHTING_GLOBAL@@UBEHXZ 10007320 f i lighting_global.obj
 0001:00006330       ?GetParamCount@CShader@LIGHTING_GLOBAL@@UBEHXZ 10007330 f i lighting_global.obj
 0001:00006340       ?OnDrawElements@CShader@LIGHTING_GLOBAL@@UAEXPAPAVIMaterialVar@@PAVIShaderShadow@@PAVIShaderDynamicAPI@@W4VertexCompressionType_t@@PAPAVCBasePerMaterialContextData@@@Z 10007340 f i lighting_global.obj
 0001:000066f0       ?GetParamInfo@CShader@LIGHTING_GLOBAL@@UBEABUShaderParamInfo_t@@H@Z 100076f0 f i lighting_global.obj
 0001:00006720       ?InitParmsLightPass@@YAXABUlightPassParms@@PAVCBaseVSShader@@PAPAVIMaterialVar@@@Z 10007720 f   lighting_pass_basic.obj
 0001:00006720       ?InitParmsLightPassVolum@@YAXABUlightPassParms@@PAVCBaseVSShader@@PAPAVIMaterialVar@@@Z 10007720 f   lighting_pass_volum.obj
 0001:00006760       ?InitPassLightPassVolum@@YAXABUlightPassParms@@PAVCBaseVSShader@@PAPAVIMaterialVar@@@Z 10007760 f   lighting_pass_volum.obj
 0001:00006760       ?InitPassLightPass@@YAXABUlightPassParms@@PAVCBaseVSShader@@PAPAVIMaterialVar@@@Z 10007760 f   lighting_pass_basic.obj
 0001:00006770       ?DrawPassLightPass@@YAXABUlightPassParms@@PAVCBaseVSShader@@PAPAVIMaterialVar@@PAVIShaderShadow@@PAVIShaderDynamicAPI@@W4VertexCompressionType_t@@@Z 10007770 f   lighting_pass_basic.obj
 0001:00006d10       ?DrawPassLightPassVolum@@YAXABUlightPassParms@@PAVCBaseVSShader@@PAPAVIMaterialVar@@PAVIShaderShadow@@PAVIShaderDynamicAPI@@W4VertexCompressionType_t@@@Z 10007d10 f   lighting_pass_volum.obj
 0001:00007120       ?OnInitShaderParams@CShader@LIGHTING_WORLD@@UAEXPAPAVIMaterialVar@@PBD@Z 10008120 f i lighting_world.obj
 0001:00007170       ?GetName@CShader@LIGHTING_WORLD@@UBEPBDXZ 10008170 f i lighting_world.obj
 0001:00007180       ?GetFlags@CShader@LIGHTING_WORLD@@UBEHXZ 10008180 f i lighting_world.obj
 0001:00007190       ?OnInitShaderInstance@CShader@LIGHTING_WORLD@@UAEXPAPAVIMaterialVar@@PAVIShaderInit@@PBD@Z 10008190 f i lighting_world.obj
 0001:000071e0       ?OnDrawElements@CShader@LIGHTING_WORLD@@UAEXPAPAVIMaterialVar@@PAVIShaderShadow@@PAVIShaderDynamicAPI@@W4VertexCompressionType_t@@PAPAVCBasePerMaterialContextData@@@Z 100081e0 f i lighting_world.obj
 0001:00007230       ?GetParamCount@CShader@LIGHTING_WORLD@@UBEHXZ 10008230 f i lighting_world.obj
 0001:00007240       ?GetParamInfo@CShader@LIGHTING_WORLD@@UBEABUShaderParamInfo_t@@H@Z 10008240 f i lighting_world.obj
 0001:00007270       ??0CShaderParam@LIGHTING_WORLD@@QAE@PBDW4ShaderParamType_t@@00H@Z 10008270 f i lighting_world.obj
 0001:00007310       ?OnInitShaderParams@CShader@LIGHTING_VOLUME@@UAEXPAPAVIMaterialVar@@PBD@Z 10008310 f i lighting_volume.obj
 0001:00007360       ?GetName@CShader@LIGHTING_VOLUME@@UBEPBDXZ 10008360 f i lighting_volume.obj
 0001:00007370       ?GetFlags@CShader@LIGHTING_VOLUME@@UBEHXZ 10008370 f i lighting_volume.obj
 0001:00007380       ?OnInitShaderInstance@CShader@LIGHTING_VOLUME@@UAEXPAPAVIMaterialVar@@PAVIShaderInit@@PBD@Z 10008380 f i lighting_volume.obj
 0001:000073d0       ?OnDrawElements@CShader@LIGHTING_VOLUME@@UAEXPAPAVIMaterialVar@@PAVIShaderShadow@@PAVIShaderDynamicAPI@@W4VertexCompressionType_t@@PAPAVCBasePerMaterialContextData@@@Z 100083d0 f i lighting_volume.obj
 0001:00007420       ?GetParamCount@CShader@LIGHTING_VOLUME@@UBEHXZ 10008420 f i lighting_volume.obj
 0001:00007430       ?GetParamInfo@CShader@LIGHTING_VOLUME@@UBEABUShaderParamInfo_t@@H@Z 10008430 f i lighting_volume.obj
 0001:00007460       ??0CShaderParam@LIGHTING_VOLUME@@QAE@PBDW4ShaderParamType_t@@00H@Z 10008460 f i lighting_volume.obj
 0001:00007500       ?GetName@CShader@RADIOSITY_BLEND@@UBEPBDXZ 10008500 f i radiosity_blend.obj
 0001:00007510       ?GetFlags@CShader@RADIOSITY_BLEND@@UBEHXZ 10008510 f i radiosity_blend.obj
 0001:00007520       ?OnDrawElements@CShader@RADIOSITY_BLEND@@UAEXPAPAVIMaterialVar@@PAVIShaderShadow@@PAVIShaderDynamicAPI@@W4VertexCompressionType_t@@PAPAVCBasePerMaterialContextData@@@Z 10008520 f i radiosity_blend.obj
 0001:00007710       ?GetParamCount@CShader@RADIOSITY_BLEND@@UBEHXZ 10008710 f i radiosity_blend.obj
 0001:00007720       ?GetParamInfo@CShader@RADIOSITY_BLEND@@UBEABUShaderParamInfo_t@@H@Z 10008720 f i radiosity_blend.obj
 0001:00007750       ?OnInitShaderParams@CShader@RADIOSITY_GLOBAL@@UAEXPAPAVIMaterialVar@@PBD@Z 10008750 f i radiosity_global.obj
 0001:00007750       ?OnInitShaderParams@CBaseShader@@UAEXPAPAVIMaterialVar@@PBD@Z 10008750 f i blur.obj
 0001:00007750       ?OnInitShaderParams@CShader@VOLUME_BLEND@@UAEXPAPAVIMaterialVar@@PBD@Z 10008750 f i volume_blend.obj
 0001:00007750       ?OnInitShaderParams@CShader@RADIOSITY_PROPAGATE@@UAEXPAPAVIMaterialVar@@PBD@Z 10008750 f i radiosity_propagate.obj
 0001:00007750       ?OnInitShaderParams@CShader@LIGHTING_GLOBAL@@UAEXPAPAVIMaterialVar@@PBD@Z 10008750 f i lighting_global.obj
 0001:00007750       ?OnInitShaderParams@CShader@SCREENSPACE_SHADING@@UAEXPAPAVIMaterialVar@@PBD@Z 10008750 f i screenspace_shading.obj
 0001:00007750       ?OnInitShaderParams@CShader@DEBUG_RADIOSITY_GRID@@UAEXPAPAVIMaterialVar@@PBD@Z 10008750 f i debug_radiosity_grid.obj
 0001:00007750       ?OnInitShaderParams@CShader@DEBUG_SHADOW@@UAEXPAPAVIMaterialVar@@PBD@Z 10008750 f i debug_shadow.obj
 0001:00007750       ?OnInitShaderParams@CShader@RADIOSITY_BLEND@@UAEXPAPAVIMaterialVar@@PBD@Z 10008750 f i radiosity_blend.obj
 0001:00007750       ?OnInitShaderParams@CShader@SCREENSPACE_COMBINE@@UAEXPAPAVIMaterialVar@@PBD@Z 10008750 f i screenspace_combine.obj
 0001:00007750       ?OnInitShaderParams@CShader@DEBUG_LIGHTING_CTRL@@UAEXPAPAVIMaterialVar@@PBD@Z 10008750 f i debug_lightingctrl.obj
 0001:00007750       ?OnInitShaderParams@CShader@VOLUME_PREPASS@@UAEXPAPAVIMaterialVar@@PBD@Z 10008750 f i volume_prepass.obj
 0001:00007750       ?OnInitShaderParams@CShader@GAUSSIAN_BLUR_6@@UAEXPAPAVIMaterialVar@@PBD@Z 10008750 f i blur.obj
 0001:00007760       ?GetName@CShader@RADIOSITY_GLOBAL@@UBEPBDXZ 10008760 f i radiosity_global.obj
 0001:00007770       ?GetFlags@CShader@RADIOSITY_GLOBAL@@UBEHXZ 10008770 f i radiosity_global.obj
 0001:00007780       ?GetParamCount@CShader@RADIOSITY_GLOBAL@@UBEHXZ 10008780 f i radiosity_global.obj
 0001:00007790       ?OnDrawElements@CShader@RADIOSITY_GLOBAL@@UAEXPAPAVIMaterialVar@@PAVIShaderShadow@@PAVIShaderDynamicAPI@@W4VertexCompressionType_t@@PAPAVCBasePerMaterialContextData@@@Z 10008790 f i radiosity_global.obj
 0001:000079c0       ?GetParamInfo@CShader@RADIOSITY_GLOBAL@@UBEABUShaderParamInfo_t@@H@Z 100089c0 f i radiosity_global.obj
 0001:000079f0       ?GetName@CShader@RADIOSITY_PROPAGATE@@UBEPBDXZ 100089f0 f i radiosity_propagate.obj
 0001:00007a00       ?GetFlags@CShader@RADIOSITY_PROPAGATE@@UBEHXZ 10008a00 f i radiosity_propagate.obj
 0001:00007a10       ?OnInitShaderInstance@CShader@RADIOSITY_PROPAGATE@@UAEXPAPAVIMaterialVar@@PAVIShaderInit@@PBD@Z 10008a10 f i radiosity_propagate.obj
 0001:00007a60       ?OnDrawElements@CShader@RADIOSITY_PROPAGATE@@UAEXPAPAVIMaterialVar@@PAVIShaderShadow@@PAVIShaderDynamicAPI@@W4VertexCompressionType_t@@PAPAVCBasePerMaterialContextData@@@Z 10008a60 f i radiosity_propagate.obj
 0001:00007b80       ?GetParamCount@CShader@RADIOSITY_PROPAGATE@@UBEHXZ 10008b80 f i radiosity_propagate.obj
 0001:00007b90       ?GetParamInfo@CShader@RADIOSITY_PROPAGATE@@UBEABUShaderParamInfo_t@@H@Z 10008b90 f i radiosity_propagate.obj
 0001:00007bc0       ??0CShaderParam@RADIOSITY_PROPAGATE@@QAE@PBDW4ShaderParamType_t@@00H@Z 10008bc0 f i radiosity_propagate.obj
 0001:00007c60       ?GetName@CShader@SCREENSPACE_COMBINE@@UBEPBDXZ 10008c60 f i screenspace_combine.obj
 0001:00007c70       ?GetFlags@CShader@SCREENSPACE_COMBINE@@UBEHXZ 10008c70 f i screenspace_combine.obj
 0001:00007c80       ?OnDrawElements@CShader@SCREENSPACE_COMBINE@@UAEXPAPAVIMaterialVar@@PAVIShaderShadow@@PAVIShaderDynamicAPI@@W4VertexCompressionType_t@@PAPAVCBasePerMaterialContextData@@@Z 10008c80 f i screenspace_combine.obj
 0001:00007d30       ?GetParamCount@CShader@SCREENSPACE_COMBINE@@UBEHXZ 10008d30 f i screenspace_combine.obj
 0001:00007d40       ?GetParamInfo@CShader@SCREENSPACE_COMBINE@@UBEABUShaderParamInfo_t@@H@Z 10008d40 f i screenspace_combine.obj
 0001:00007d70       ?GetName@CShader@SCREENSPACE_SHADING@@UBEPBDXZ 10008d70 f i screenspace_shading.obj
 0001:00007d80       ?GetFlags@CShader@SCREENSPACE_SHADING@@UBEHXZ 10008d80 f i screenspace_shading.obj
 0001:00007d90       ?OnDrawElements@CShader@SCREENSPACE_SHADING@@UAEXPAPAVIMaterialVar@@PAVIShaderShadow@@PAVIShaderDynamicAPI@@W4VertexCompressionType_t@@PAPAVCBasePerMaterialContextData@@@Z 10008d90 f i screenspace_shading.obj
 0001:00008050       ?GetParamCount@CShader@SCREENSPACE_SHADING@@UBEHXZ 10009050 f i screenspace_shading.obj
 0001:00008060       ?GetParamInfo@CShader@SCREENSPACE_SHADING@@UBEABUShaderParamInfo_t@@H@Z 10009060 f i screenspace_shading.obj
 0001:00008090       ?GetName@CShader@VOLUME_BLEND@@UBEPBDXZ 10009090 f i volume_blend.obj
 0001:000080a0       ?GetFlags@CShader@VOLUME_BLEND@@UBEHXZ 100090a0 f i volume_blend.obj
 0001:000080b0       ?OnInitShaderInstance@CShader@VOLUME_BLEND@@UAEXPAPAVIMaterialVar@@PAVIShaderInit@@PBD@Z 100090b0 f i volume_blend.obj
 0001:000080b0       ?OnInitShaderInstance@CShader@GAUSSIAN_BLUR_6@@UAEXPAPAVIMaterialVar@@PAVIShaderInit@@PBD@Z 100090b0 f i blur.obj
 0001:000080e0       ?OnDrawElements@CShader@VOLUME_BLEND@@UAEXPAPAVIMaterialVar@@PAVIShaderShadow@@PAVIShaderDynamicAPI@@W4VertexCompressionType_t@@PAPAVCBasePerMaterialContextData@@@Z 100090e0 f i volume_blend.obj
 0001:000081b0       ?GetParamCount@CShader@VOLUME_BLEND@@UBEHXZ 100091b0 f i volume_blend.obj
 0001:000081c0       ?GetParamInfo@CShader@VOLUME_BLEND@@UBEABUShaderParamInfo_t@@H@Z 100091c0 f i volume_blend.obj
 0001:000081f0       ?GetName@CShader@VOLUME_PREPASS@@UBEPBDXZ 100091f0 f i volume_prepass.obj
 0001:00008200       ?GetFlags@CShader@VOLUME_PREPASS@@UBEHXZ 10009200 f i volume_prepass.obj
 0001:00008210       ?GetFallbackShader@CShader@RADIOSITY_GLOBAL@@UBEPBDPAPAVIMaterialVar@@@Z 10009210 f i radiosity_global.obj
 0001:00008210       ?GetFallbackShader@CShader@SCREENSPACE_COMBINE@@UBEPBDPAPAVIMaterialVar@@@Z 10009210 f i screenspace_combine.obj
 0001:00008210       ?GetFallbackShader@CShader@SCREENSPACE_SHADING@@UBEPBDPAPAVIMaterialVar@@@Z 10009210 f i screenspace_shading.obj
 0001:00008210       ?GetFallbackShader@CShader@VOLUME_BLEND@@UBEPBDPAPAVIMaterialVar@@@Z 10009210 f i volume_blend.obj
 0001:00008210       ?GetFallbackShader@CShader@RADIOSITY_BLEND@@UBEPBDPAPAVIMaterialVar@@@Z 10009210 f i radiosity_blend.obj
 0001:00008210       ?GetFallbackShader@CShader@RADIOSITY_PROPAGATE@@UBEPBDPAPAVIMaterialVar@@@Z 10009210 f i radiosity_propagate.obj
 0001:00008210       ?GetFallbackShader@CBaseShader@@UBEPBDPAPAVIMaterialVar@@@Z 10009210 f i blur.obj
 0001:00008210       ?GetFallbackShader@CShader@LIGHTING_GLOBAL@@UBEPBDPAPAVIMaterialVar@@@Z 10009210 f i lighting_global.obj
 0001:00008210       ?GetFallbackShader@CShader@VOLUME_PREPASS@@UBEPBDPAPAVIMaterialVar@@@Z 10009210 f i volume_prepass.obj
 0001:00008210       ?GetFallbackShader@CShader@GAUSSIAN_BLUR_6@@UBEPBDPAPAVIMaterialVar@@@Z 10009210 f i blur.obj
 0001:00008210       ?GetFallbackShader@CShader@LIGHTING_WORLD@@UBEPBDPAPAVIMaterialVar@@@Z 10009210 f i lighting_world.obj
 0001:00008210       ?GetFallbackShader@CShader@DEFERRED_DECALMODULATE@@UBEPBDPAPAVIMaterialVar@@@Z 10009210 f i deferred_decalModulate.obj
 0001:00008210       ?GetFallbackShader@CShader@DEBUG_RADIOSITY_GRID@@UBEPBDPAPAVIMaterialVar@@@Z 10009210 f i debug_radiosity_grid.obj
 0001:00008210       ?GetFallbackShader@CShader@DEBUG_LIGHTING_CTRL@@UBEPBDPAPAVIMaterialVar@@@Z 10009210 f i debug_lightingctrl.obj
 0001:00008210       ?GetFallbackShader@CShader@DEBUG_SHADOW@@UBEPBDPAPAVIMaterialVar@@@Z 10009210 f i debug_shadow.obj
 0001:00008210       ?GetFallbackShader@CShader@LIGHTING_VOLUME@@UBEPBDPAPAVIMaterialVar@@@Z 10009210 f i lighting_volume.obj
 0001:00008220       ?OnDrawElements@CShader@VOLUME_PREPASS@@UAEXPAPAVIMaterialVar@@PAVIShaderShadow@@PAVIShaderDynamicAPI@@W4VertexCompressionType_t@@PAPAVCBasePerMaterialContextData@@@Z 10009220 f i volume_prepass.obj
 0001:00008340       ?GetParamCount@CShader@VOLUME_PREPASS@@UBEHXZ 10009340 f i volume_prepass.obj
 0001:00008350       ?GetParamInfo@CShader@VOLUME_PREPASS@@UBEABUShaderParamInfo_t@@H@Z 10009350 f i volume_prepass.obj
 0001:00008380       ??1?$CUtlVector@PAVCShaderParam@RADIOSITY_GLOBAL@@V?$CUtlMemory@PAVCShaderParam@RADIOSITY_GLOBAL@@H@@@@QAE@XZ 10009380 f i radiosity_global.obj
 0001:00008380       ??1?$CUtlVector@PAVCShaderParam@DEBUG_LIGHTING_CTRL@@V?$CUtlMemory@PAVCShaderParam@DEBUG_LIGHTING_CTRL@@H@@@@QAE@XZ 10009380 f i debug_lightingctrl.obj
 0001:00008380       ??1?$CUtlVector@PAVCShaderParam@LIGHTING_WORLD@@V?$CUtlMemory@PAVCShaderParam@LIGHTING_WORLD@@H@@@@QAE@XZ 10009380 f i lighting_world.obj
 0001:00008380       ??1?$CUtlVector@PAVCShaderParam@VOLUME_PREPASS@@V?$CUtlMemory@PAVCShaderParam@VOLUME_PREPASS@@H@@@@QAE@XZ 10009380 f i volume_prepass.obj
 0001:00008380       ??1?$CUtlVector@PAVCShaderParam@RADIOSITY_BLEND@@V?$CUtlMemory@PAVCShaderParam@RADIOSITY_BLEND@@H@@@@QAE@XZ 10009380 f i radiosity_blend.obj
 0001:00008380       ??1?$CUtlVector@PAVCShaderParam@GAUSSIAN_BLUR_6@@V?$CUtlMemory@PAVCShaderParam@GAUSSIAN_BLUR_6@@H@@@@QAE@XZ 10009380 f i blur.obj
 0001:00008380       ??1?$CUtlVector@PAVCShaderParam@SCREENSPACE_COMBINE@@V?$CUtlMemory@PAVCShaderParam@SCREENSPACE_COMBINE@@H@@@@QAE@XZ 10009380 f i screenspace_combine.obj
 0001:00008380       ??1?$CUtlVector@P6AXPAVIConVar@@PBDM@ZV?$CUtlMemory@P6AXPAVIConVar@@PBDM@ZH@@@@QAE@XZ 10009380 f i tier1:convar.obj
 0001:00008380       ??1?$CUtlVector@PAVCShaderParam@DEFERRED_DECALMODULATE@@V?$CUtlMemory@PAVCShaderParam@DEFERRED_DECALMODULATE@@H@@@@QAE@XZ 10009380 f i deferred_decalModulate.obj
 0001:00008380       ??1?$CUtlVector@PAVCShaderParam@LIGHTING_GLOBAL@@V?$CUtlMemory@PAVCShaderParam@LIGHTING_GLOBAL@@H@@@@QAE@XZ 10009380 f i lighting_global.obj
 0001:00008380       ??1?$CUtlVector@PAVCShaderParam@SCREENSPACE_SHADING@@V?$CUtlMemory@PAVCShaderParam@SCREENSPACE_SHADING@@H@@@@QAE@XZ 10009380 f i screenspace_shading.obj
 0001:00008380       ??1?$CUtlVector@PAVCShaderParam@DEFERRED_BRUSH@@V?$CUtlMemory@PAVCShaderParam@DEFERRED_BRUSH@@H@@@@QAE@XZ 10009380 f i deferred_brush.obj
 0001:00008380       ??1?$CUtlVector@PAVCShaderParam@LIGHTING_VOLUME@@V?$CUtlMemory@PAVCShaderParam@LIGHTING_VOLUME@@H@@@@QAE@XZ 10009380 f i lighting_volume.obj
 0001:00008380       ??1?$CUtlVector@PAVCShaderParam@DEBUG_RADIOSITY_GRID@@V?$CUtlMemory@PAVCShaderParam@DEBUG_RADIOSITY_GRID@@H@@@@QAE@XZ 10009380 f i debug_radiosity_grid.obj
 0001:00008380       ??1?$CUtlVector@PAVCShaderParam@VOLUME_BLEND@@V?$CUtlMemory@PAVCShaderParam@VOLUME_BLEND@@H@@@@QAE@XZ 10009380 f i volume_blend.obj
 0001:00008380       ??1?$CUtlVector@PAVCShaderParam@RADIOSITY_PROPAGATE@@V?$CUtlMemory@PAVCShaderParam@RADIOSITY_PROPAGATE@@H@@@@QAE@XZ 10009380 f i radiosity_propagate.obj
 0001:00008380       ??1?$CUtlVector@PAVCShaderParam@DEFERRED_MODEL@@V?$CUtlMemory@PAVCShaderParam@DEFERRED_MODEL@@H@@@@QAE@XZ 10009380 f i deferred_model.obj
 0001:00008380       ??1?$CUtlVector@PAVCShaderParam@DEBUG_SHADOW@@V?$CUtlMemory@PAVCShaderParam@DEBUG_SHADOW@@H@@@@QAE@XZ 10009380 f i debug_shadow.obj
 0001:000083f0       ?ConVar_Register@@YAXHPAVIConCommandBaseAccessor@@@Z 100093f0 f   tier1:convar.obj
 0001:000084a0       ?ConVar_Unregister@@YAXXZ  100094a0 f   tier1:convar.obj
 0001:000084f0       ?IsCommand@ConCommandBase@@UBE_NXZ 100094f0 f   tier1:convar.obj
 0001:00008500       ?GetDLLIdentifier@ConCommandBase@@UBEHXZ 10009500 f   tier1:convar.obj
 0001:00008510       ?Create@ConCommandBase@@MAEXPBD0H@Z 10009510 f   tier1:convar.obj
 0001:00008560       ?GetName@ConCommandBase@@UBEPBDXZ 10009560 f   tier1:convar.obj
 0001:00008570       ?IsFlagSet@ConCommandBase@@UBE_NH@Z 10009570 f   tier1:convar.obj
 0001:00008580       ?AddFlags@ConCommandBase@@UAEXH@Z 10009580 f   tier1:convar.obj
 0001:00008590       ?RemoveFlags@ConCommandBase@@UAEXH@Z 10009590 f   tier1:convar.obj
 0001:000085a0       ?ShaderCount@CShaderDLL@@UBEHXZ 100095a0 f   shaderlib:ShaderDLL.obj
 0001:000085a0       ?GetFlags@ConCommandBase@@UBEHXZ 100095a0 f   tier1:convar.obj
 0001:000085b0       ?GetHelpText@ConCommandBase@@UBEPBDXZ 100095b0 f   tier1:convar.obj
 0001:000085c0       ?IsRegistered@ConCommandBase@@UBE_NXZ 100095c0 f   tier1:convar.obj
 0001:000085d0       ?IsFlagSet@ConVar@@UBE_NH@Z 100095d0 f   tier1:convar.obj
 0001:000085e0       ?GetFlags@ConVar@@UBEHXZ   100095e0 f   tier1:convar.obj
 0001:000085f0       ?GetHelpText@ConVar@@UBEPBDXZ 100095f0 f   tier1:convar.obj
 0001:00008600       ?AddFlags@ConVar@@UAEXH@Z  10009600 f   tier1:convar.obj
 0001:00008610       ?IsRegistered@ConVar@@UBE_NXZ 10009610 f   tier1:convar.obj
 0001:00008620       ?GetName@ConVar@@UBEPBDXZ  10009620 f   tier1:convar.obj
 0001:00008630       ?GetBaseName@ConVar@@UBEPBDXZ 10009630 f   tier1:convar.obj
 0001:00008640       ?GetSplitScreenPlayerSlot@ConVar@@UBEHXZ 10009640 f   tier1:convar.obj
 0001:00008650       ?IsCommand@ConVar@@UBE_NXZ 10009650 f   tier1:convar.obj
 0001:00008660       ?Init@ConCommandBase@@MAEXXZ 10009660 f   tier1:convar.obj
 0001:00008660       ?Init@ConVar@@EAEXXZ       10009660 f   tier1:convar.obj
 0001:00008680       ?InternalSetColorFromString@ConVar@@AAE_NPBD@Z 10009680 f   tier1:convar.obj
 0001:00008730       ?InternalSetValue@ConVar@@EAEXPBD@Z 10009730 f   tier1:convar.obj
 0001:00008860       ?ClampValue@ConVar@@EAE_NAAM@Z 10009860 f   tier1:convar.obj
 0001:000088a0       ?InternalSetFloatValue@ConVar@@EAEXM@Z 100098a0 f   tier1:convar.obj
 0001:00008980       ?InternalSetIntValue@ConVar@@EAEXH@Z 10009980 f   tier1:convar.obj
 0001:00008a50       ?InternalSetColorValue@ConVar@@EAEXVColor@@@Z 10009a50 f   tier1:convar.obj
 0001:00008a80       ?SetValue@ConVar@@UAEXPBD@Z 10009a80 f   tier1:convar.obj
 0001:00008a90       ?SetValue@ConVar@@UAEXM@Z  10009a90 f   tier1:convar.obj
 0001:00008ab0       ?SetValue@ConVar@@UAEXH@Z  10009ab0 f   tier1:convar.obj
 0001:00008ac0       ?SetValue@ConVar@@UAEXVColor@@@Z 10009ac0 f   tier1:convar.obj
 0001:00008ad0       ?RegisterConCommandBase@CDefaultAccessor@@UAE_NPAVConCommandBase@@@Z 10009ad0 f i tier1:convar.obj
 0001:00008af0       ??_GConCommandBase@@UAEPAXI@Z 10009af0 f i tier1:convar.obj
 0001:00008af0       ??_EConCommandBase@@UAEPAXI@Z 10009af0 f i tier1:convar.obj
 0001:00008b10       ?Init@ConVarRef@@QAEXPBD_N@Z 10009b10 f   tier1:convar.obj
 0001:00008b90       ?Grow@?$CUtlMemory@P6AXPAVIConVar@@PBDM@ZH@@QAEXH@Z 10009b90 f i tier1:convar.obj
 0001:00008c20       ?ChangeStringValue@ConVar@@EAEXPBDM@Z 10009c20 f   tier1:convar.obj
 0001:00008ce0       ??0ConVarRef@@QAE@PBD@Z    10009ce0 f   tier1:convar.obj
 0001:00008d00       ?InsertBefore@?$CUtlVector@P6AXPAVIConVar@@PBDM@ZV?$CUtlMemory@P6AXPAVIConVar@@PBDM@ZH@@@@QAEHHABQ6AXPAVIConVar@@PBDM@Z@Z 10009d00 f i tier1:convar.obj
 0001:00008d70       ??1ConVar@@UAE@XZ          10009d70 f   tier1:convar.obj
 0001:00008db0       ?GetName@ConVar@@WBI@BEPBDXZ 10009db0 f i tier1:convar.obj
 0001:00008dc0       ?IsFlagSet@ConVar@@WBI@BE_NH@Z 10009dc0 f i tier1:convar.obj
 0001:00008dd0       ??_ECEmptyConVar@@UAEPAXI@Z 10009dd0 f i tier1:convar.obj
 0001:00008dd0       ??_GConVar@@UAEPAXI@Z      10009dd0 f i tier1:convar.obj
 0001:00008dd0       ??_EConVar@@UAEPAXI@Z      10009dd0 f i tier1:convar.obj
 0001:00008dd0       ??_GCEmptyConVar@@UAEPAXI@Z 10009dd0 f i tier1:convar.obj
 0001:00008e20       ?Create@ConVar@@EAEXPBD0H0_NM1MP6AXPAVIConVar@@0M@Z@Z 10009e20 f   tier1:convar.obj
 0001:00008f60       ??0ConVar@@QAE@PBD0H@Z     10009f60 f   tier1:convar.obj
 0001:00008fd0       ?SetValue@CEmptyConVar@@UAEXPBD@Z 10009fd0 f i tier1:convar.obj
 0001:00008fd0       ?SetValue@CEmptyConVar@@UAEXM@Z 10009fd0 f i tier1:convar.obj
 0001:00008fd0       ?SetValue@CEmptyConVar@@UAEXH@Z 10009fd0 f i tier1:convar.obj
 0001:00008fe0       ?GetName@CEmptyConVar@@UBEPBDXZ 10009fe0 f i tier1:convar.obj
 0001:00008ff0       ?IsFlagSet@CEmptyConVar@@UBE_NH@Z 10009ff0 f i tier1:convar.obj
 0001:00009000       ?GetName@CEmptyConVar@@WBI@BEPBDXZ 1000a000 f i tier1:convar.obj
 0001:00009010       ?IsFlagSet@CEmptyConVar@@WBI@BE_NH@Z 1000a010 f i tier1:convar.obj
 0001:00009020       ?_V_strlen@@YAHPBD@Z       1000a020 f   tier1:strtools.obj
 0001:00009050       ?_V_strcmp@@YAHPBD0@Z      1000a050 f   tier1:strtools.obj
 0001:000090b0       ?_V_memset@@YAXPAXHH@Z     1000a0b0 f   tier1:strtools.obj
 0001:000090e0       ?_V_memcpy@@YAXPAXPBXH@Z   1000a0e0 f   tier1:strtools.obj
 0001:00009110       ?_V_memmove@@YAXPAXPBXH@Z  1000a110 f   tier1:strtools.obj
 0001:00009140       ?V_snprintf@@YAHPADHPBDZZ  1000a140 f   tier1:strtools.obj
 0001:00009190       ??0InterfaceReg@@QAE@P6APAXXZPBD@Z 1000a190 f   tier1:interface.obj
 0001:000091b0       ?CreateInterfaceInternal@@YAPAXPBDPAH@Z 1000a1b0 f   tier1:interface.obj
 0001:00009220       _CreateInterface           1000a220 f   tier1:interface.obj
 0001:00009230       ?FindConversion@CUtlCStringConversion@@UAEDPBDPAH@Z 1000a230 f   tier1:utlbuffer.obj
 0001:00009250       ??0CUtlCharConversion@@QAE@DPBDHPAUConversionArray_t@0@@Z 1000a250 f   tier1:utlbuffer.obj
 0001:000092e0       ?FindConversion@CUtlCharConversion@@UAEDPBDPAH@Z 1000a2e0 f   tier1:utlbuffer.obj
 0001:00009340       ?FindConversion@CUtlNoEscConversion@@UAEDPBDPAH@Z 1000a340 f i tier1:utlbuffer.obj
 0001:00009350       ?ReconnectInterface@@YAXP6APAXPBDPAH@Z0PAPAX@Z 1000a350 f   interfaces:interfaces.obj
 0001:000093c0       ?ConnectInterfaces@@YAXPAP6APAXPBDPAH@ZH@Z 1000a3c0 f   interfaces:interfaces.obj
 0001:000094c0       ?DisconnectInterfaces@@YAXXZ 1000a4c0 f   interfaces:interfaces.obj
 0001:00009500       ?BuildGammaTable@@YAXMMMH@Z 1000a500 f   mathlib:color_conversion.obj
 0001:00009860       ??4VMatrix@@QAEAAV0@ABV0@@Z 1000a860 f   mathlib:vmatrix.obj
 0001:000098d0       ?MatrixSetIdentity@@YAXAAVVMatrix@@@Z 1000a8d0 f   mathlib:vmatrix.obj
 0001:00009930       ?MatrixTranspose@@YAXABVVMatrix@@AAV1@@Z 1000a930 f   mathlib:vmatrix.obj
 0001:00009a00       ?Transpose@VMatrix@@QBE?AV1@XZ 1000aa00 f   mathlib:vmatrix.obj
 0001:00009a70       ?_VectorNormalizeFast@@YIXAAVVector@@@Z 1000aa70 f   mathlib:mathlib_base.obj
 0001:00009ad0       ?MathLib_Init@@YAXMMMH_N000@Z 1000aad0 f   mathlib:mathlib_base.obj
 0001:00009b70       ?Seed@SIMDRandStreamContext@@QAEXI@Z 1000ab70 f i mathlib:randsse.obj
 0001:00009c60       ?SeedRandSIMD@@YAXI@Z      1000ac60 f   mathlib:randsse.obj
 0001:00009c90       ??_GCBasePerInstanceContextData@@UAEPAXI@Z 1000ac90 f i shaderlib:BaseShader.obj
 0001:00009c90       ??_ECBasePerInstanceContextData@@UAEPAXI@Z 1000ac90 f i shaderlib:BaseShader.obj
 0001:00009cc0       ?GetParamCount@CBaseShader@@UBEHXZ 1000acc0 f   shaderlib:BaseShader.obj
 0001:00009cd0       ?GetParamInfo@CBaseShader@@UBEABUShaderParamInfo_t@@H@Z 1000acd0 f   shaderlib:BaseShader.obj
 0001:00009cf0       ?InitShaderParams@CBaseShader@@UAEXPAPAVIMaterialVar@@PBD@Z 1000acf0 f   shaderlib:BaseShader.obj
 0001:00009d20       ?InitShaderInstance@CBaseShader@@UAEXPAPAVIMaterialVar@@PAVIShaderInit@@PBD2@Z 1000ad20 f   shaderlib:BaseShader.obj
 0001:00009d70       ?SetInitialShadowState@CBaseShader@@QAEXXZ 1000ad70 f   shaderlib:BaseShader.obj
 0001:00009e40       ?LoadTexture@CBaseShader@@QAEXH@Z 1000ae40 f   shaderlib:BaseShader.obj
 0001:00009e90       ?LoadBumpMap@CBaseShader@@QAEXH@Z 1000ae90 f   shaderlib:BaseShader.obj
 0001:00009ee0       ?LoadCubeMap@CBaseShader@@QAEXH@Z 1000aee0 f   shaderlib:BaseShader.obj
 0001:00009f30       ?GetShaderAPITextureBindHandle@CBaseShader@@QAEHHHH@Z 1000af30 f   shaderlib:BaseShader.obj
 0001:00009f80       ?NeedsPowerOfTwoFrameBufferTexture@CBaseShader@@UBE_NPAPAVIMaterialVar@@_N@Z 1000af80 f   shaderlib:BaseShader.obj
 0001:00009fa0       ?NeedsFullFrameBufferTexture@CBaseShader@@UBE_NPAPAVIMaterialVar@@_N@Z 1000afa0 f   shaderlib:BaseShader.obj
 0001:00009fc0       ?IsTranslucent@CBaseShader@@UBE_NPAPAVIMaterialVar@@@Z 1000afc0 f   shaderlib:BaseShader.obj
 0001:00009fe0       ?EnableAlphaBlending@CBaseShader@@QAEXW4ShaderBlendFactor_t@@0@Z 1000afe0 f   shaderlib:BaseShader.obj
 0001:0000a020       ?FogToGrey@CBaseShader@@QAEXXZ 1000b020 f   shaderlib:BaseShader.obj
 0001:0000a060       ?DefaultFog@CBaseShader@@QAEXXZ 1000b060 f   shaderlib:BaseShader.obj
 0001:0000a0c0       ??_ECPerInstanceContextData@@UAEPAXI@Z 1000b0c0 f i shaderlib:BaseShader.obj
 0001:0000a0c0       ??_GCPerInstanceContextData@@UAEPAXI@Z 1000b0c0 f i shaderlib:BaseShader.obj
 0001:0000a100       ??0CBaseShader@@QAE@XZ     1000b100 f   shaderlib:BaseShader.obj
 0001:0000a120       ?DrawElements@CBaseShader@@UAEXPAPAVIMaterialVar@@HPAVIShaderShadow@@PAVIShaderDynamicAPI@@W4VertexCompressionType_t@@PAPAVCBasePerMaterialContextData@@PAPAVCBasePerInstanceContextData@@@Z 1000b120 f   shaderlib:BaseShader.obj
 0001:0000a1b0       ?BindTexture@CBaseShader@@QAEXW4Sampler_t@@HH@Z 1000b1b0 f   shaderlib:BaseShader.obj
 0001:0000a200       ?BindTexture@CBaseShader@@QAEXW4Sampler_t@@PAVITexture@@H@Z 1000b200 f   shaderlib:BaseShader.obj
 0001:0000a220       ?ComputeModulationFlags@CBaseShader@@UAEHPAPAVIMaterialVar@@PAVIShaderDynamicAPI@@@Z 1000b220 f   shaderlib:BaseShader.obj
 0001:0000a300       ?PI_EndCommandBuffer@CBaseShader@@QAEXXZ 1000b300 f   shaderlib:BaseShader.obj
 0001:0000a3f0       ?Draw@CBaseShader@@QAEX_N@Z 1000b3f0 f   shaderlib:BaseShader.obj
 0001:0000a4d0       ?Connect@CShaderDLL@@UAE_NP6APAXPBDPAH@Z_N@Z 1000b4d0 f   shaderlib:ShaderDLL.obj
 0001:0000a550       ?Disconnect@CShaderDLL@@UAEX_N@Z 1000b550 f   shaderlib:ShaderDLL.obj
 0001:0000a590       ?Connect@CShaderDLL@@UAE_NP6APAXPBDPAH@Z@Z 1000b590 f   shaderlib:ShaderDLL.obj
 0001:0000a5b0       ?Disconnect@CShaderDLL@@UAEXXZ 1000b5b0 f   shaderlib:ShaderDLL.obj
 0001:0000a5c0       ?GetShader@CShaderDLL@@UAEPAVIShader@@H@Z 1000b5c0 f   shaderlib:ShaderDLL.obj
 0001:0000a5e0       ??0CShaderDLL@@QAE@XZ      1000b5e0 f   shaderlib:ShaderDLL.obj
 0001:0000a640       ?GetShaderDLL@@YAPAVIShaderDLL@@XZ 1000b640 f   shaderlib:ShaderDLL.obj
 0001:0000a680       ?GetShaderDLLInternal@@YAPAVIShaderDLLInternal@@XZ 1000b680 f   shaderlib:ShaderDLL.obj
 0001:0000a6b0       ?InsertShader@CShaderDLL@@UAEXPAVIShader@@@Z 1000b6b0 f   shaderlib:ShaderDLL.obj
 0001:0000a710       ?InitShaderLibCVars@@YAXP6APAXPBDPAH@Z@Z 1000b710 f   shaderlib:shaderlib_cvar.obj
 0001:0000a730       ?RegisterConCommandBase@CShaderLibConVarAccessor@@UAE_NPAVConCommandBase@@@Z 1000b730 f i shaderlib:shaderlib_cvar.obj
 0001:0000a789       __cfltcvt_init             1000b789 f   LIBCMT:_fpinit_.obj
 0001:0000a7e9       __fpmath                   1000b7e9 f   LIBCMT:_fpinit_.obj
 0001:0000a810       _fmod                      1000b810 f   LIBCMT:_87fmod_.obj
 0001:0000a81a       __CIfmod                   1000b81a f   LIBCMT:_87fmod_.obj
 0001:0000a840       __ftol2_sse                1000b840 f   LIBCMT:ftol2.obj
 0001:0000a849       __ftol2_pentium4           1000b849 f   LIBCMT:ftol2.obj
 0001:0000a85c       __ftol2_sse_excpt          1000b85c f   LIBCMT:ftol2.obj
 0001:0000a876       __ftol2                    1000b876 f   LIBCMT:ftol2.obj
 0001:0000a9a1       ___onexitinit              1000b9a1 f   LIBCMT:onexit.obj
 0001:0000a9d2       __onexit                   1000b9d2 f   LIBCMT:onexit.obj
 0001:0000aa0e       _atexit                    1000ba0e f   LIBCMT:onexit.obj
 0001:0000aa25       ??1type_info@@UAE@XZ       1000ba25 f   LIBCMT:typinfo.obj
 0001:0000aa35       ??_Gtype_info@@UAEPAXI@Z   1000ba35 f i LIBCMT:typinfo.obj
 0001:0000aa35       ??_Etype_info@@UAEPAXI@Z   1000ba35 f i LIBCMT:typinfo.obj
 0001:0000aa56       __purecall                 1000ba56 f   LIBCMT:purevirt.obj
 0001:0000aa80       _printf                    1000ba80 f   LIBCMT:printf.obj
 0001:0000ab27       __get_printf_count_output  1000bb27 f   LIBCMT:printf.obj
 0001:0000ab3d       ??3@YAXPAX@Z               1000bb3d f   LIBCMT:delete.obj
 0001:0000ab48       ??1bad_alloc@std@@UAE@XZ   1000bb48 f i LIBCMT:new.obj
 0001:0000ab53       ??_Gbad_alloc@std@@UAEPAXI@Z 1000bb53 f i LIBCMT:new.obj
 0001:0000ab53       ??_Ebad_alloc@std@@UAEPAXI@Z 1000bb53 f i LIBCMT:new.obj
 0001:0000ab7a       ??0bad_alloc@std@@QAE@ABV01@@Z 1000bb7a f i LIBCMT:new.obj
 0001:0000ab97       ??2@YAPAXI@Z               1000bb97 f   LIBCMT:new.obj
 0001:0000ac20       _memcpy                    1000bc20 f   LIBCMT:memcpy.obj
 0001:0000af82       __CRT_INIT@12              1000bf82 f   LIBCMT:dllcrt0.obj
 0001:0000b1dc       __DllMainCRTStartup@12     1000c1dc f   LIBCMT:dllcrt0.obj
 0001:0000b26d       _sscanf                    1000c26d f   LIBCMT:sscanf.obj
 0001:0000b28f       ??0_LocaleUpdate@@QAE@PAUlocaleinfo_struct@@@Z 1000c28f f i LIBCMT:atof.obj
 0001:0000b316       __atof_l                   1000c316 f   LIBCMT:atof.obj
 0001:0000b3c1       _atof                      1000c3c1 f   LIBCMT:atof.obj
 0001:0000b3d4       __vsnprintf_l              1000c3d4 f   LIBCMT:vsnprint.obj
 0001:0000b480       __vsnprintf                1000c480 f   LIBCMT:vsnprint.obj
 0001:0000b4a0       __chkstk                   1000c4a0 f   LIBCMT:chkstk.obj
 0001:0000b4a0       __alloca_probe             1000c4a0     LIBCMT:chkstk.obj
 0001:0000b4e0       _strchr                    1000c4e0 f   LIBCMT:strchr.obj
 0001:0000b4e6       ___from_strstr_to_strchr   1000c4e6     LIBCMT:strchr.obj
 0001:0000b5a0       __alloca_probe_16          1000c5a0 f   LIBCMT:alloca16.obj
 0001:0000b5b6       __alloca_probe_8           1000c5b6     LIBCMT:alloca16.obj
 0001:0000b5d0       _strstr                    1000c5d0 f   LIBCMT:strstr.obj
 0001:0000b656       __tolower_l                1000c656 f   LIBCMT:tolower.obj
 0001:0000b76b       _tolower                   1000c76b f   LIBCMT:tolower.obj
 0001:0000b7a0       __allmul                   1000c7a0 f   LIBCMT:llmul.obj
 0001:0000b7e0       _strncat                   1000c7e0 f   LIBCMT:strncat.obj
 0001:0000b920       _memset                    1000c920 f   LIBCMT:memset.obj
 0001:0000b9a0       _memmove                   1000c9a0 f   LIBCMT:memmove.obj
 0001:0000bd10       _strncpy                   1000cd10 f   LIBCMT:strncpy.obj
 0001:0000be40       __allrem                   1000ce40 f   LIBCMT:llrem.obj
 0001:0000bf00       __alldiv                   1000cf00 f   LIBCMT:lldiv.obj
 0001:0000bfb0       _floor                     1000cfb0 f   LIBCMT:_floor_pentium4_.obj
 0001:0000bff0       __floor_pentium4           1000cff0 f   LIBCMT:_floor_pentium4_.obj
 0001:0000c0e0       _pow                       1000d0e0 f   LIBCMT:_pow_.obj
 0001:0000c120       __CIpow                    1000d120 f   LIBCMT:_pow_.obj
 0001:0000c15b       __CIpow_default            1000d15b f   LIBCMT:_pow_.obj
 0001:0000c174       __pow_default              1000d174     LIBCMT:_pow_.obj
 0001:0000c36a       ___libm_sse2_pow           1000d36a f   LIBCMT:_pow_sse2_.obj
 0001:0000cdf0       _acos                      1000ddf0 f   LIBCMT:_acos_.obj
 0001:0000ce30       __CIacos                   1000de30 f   LIBCMT:_acos_.obj
 0001:0000ce6b       __CIacos_default           1000de6b f   LIBCMT:_acos_.obj
 0001:0000ce7f       __acos_default             1000de7f     LIBCMT:_acos_.obj
 0001:0000cf36       ___libm_sse2_sin           1000df36 f   LIBCMT:_sin_sse2_.obj
 0001:0000d0f0       _asin                      1000e0f0 f   LIBCMT:_asin_.obj
 0001:0000d130       __CIasin                   1000e130 f   LIBCMT:_asin_.obj
 0001:0000d16b       __CIasin_default           1000e16b f   LIBCMT:_asin_.obj
 0001:0000d17f       __asin_default             1000e17f     LIBCMT:_asin_.obj
 0001:0000d236       __forcdecpt_l              1000e236 f   LIBCMT:cvt.obj
 0001:0000d2aa       __cropzeros_l              1000e2aa f   LIBCMT:cvt.obj
 0001:0000d32c       __positive                 1000e32c f   LIBCMT:cvt.obj
 0001:0000d348       __fassign_l                1000e348 f   LIBCMT:cvt.obj
 0001:0000d38a       __fassign                  1000e38a f   LIBCMT:cvt.obj
 0001:0000d3c3       __forcdecpt                1000e3c3 f   LIBCMT:cvt.obj
 0001:0000d3d6       __cropzeros                1000e3d6 f   LIBCMT:cvt.obj
 0001:0000d54a       __cftoe_l                  1000e54a f   LIBCMT:cvt.obj
 0001:0000d611       __cftoe                    1000e611 f   LIBCMT:cvt.obj
 0001:0000d631       __cftoa_l                  1000e631 f   LIBCMT:cvt.obj
 0001:0000daaa       __cftof_l                  1000eaaa f   LIBCMT:cvt.obj
 0001:0000db6b       __cftog_l                  1000eb6b f   LIBCMT:cvt.obj
 0001:0000dc58       __cfltcvt_l                1000ec58 f   LIBCMT:cvt.obj
 0001:0000dce0       __cfltcvt                  1000ece0 f   LIBCMT:cvt.obj
 0001:0000dd03       __initp_misc_cfltcvt_tab   1000ed03 f   LIBCMT:cmiscdat.obj
 0001:0000dd26       __setdefaultprecision      1000ed26 f   LIBCMT:fp8.obj
 0001:0000dd50       __cintrindisp2             1000ed50 f   LIBCMT:_87cdisp_.obj
 0001:0000dd8e       __cintrindisp1             1000ed8e f   LIBCMT:_87cdisp_.obj
 0001:0000ddcb       __ctrandisp2               1000edcb f   LIBCMT:_87cdisp_.obj
 0001:0000df5a       __ctrandisp1               1000ef5a f   LIBCMT:_87cdisp_.obj
 0001:0000df8d       __fload                    1000ef8d f   LIBCMT:_87cdisp_.obj
 0001:0000dfd0       __trandisp1                1000efd0 f   LIBCMT:_87disp_.obj
 0001:0000e037       __trandisp2                1000f037 f   LIBCMT:_87disp_.obj
 0001:0000e0c3       __rttospopde               1000f0c3     LIBCMT:_87disp_.obj
 0001:0000e0c8       __rttospop                 1000f0c8     LIBCMT:_87disp_.obj
 0001:0000e0ca       __rtnospop                 1000f0ca     LIBCMT:_87disp_.obj
 0001:0000e0cc       __rttosnpop                1000f0cc     LIBCMT:_87disp_.obj
 0001:0000e0cd       __rtnospopde               1000f0cd     LIBCMT:_87disp_.obj
 0001:0000e0d4       __rtzeropop                1000f0d4     LIBCMT:_87disp_.obj
 0001:0000e0d6       __rtzeronpop               1000f0d6     LIBCMT:_87disp_.obj
 0001:0000e0db       __rtonepop                 1000f0db     LIBCMT:_87disp_.obj
 0001:0000e0dd       __rtonenpop                1000f0dd     LIBCMT:_87disp_.obj
 0001:0000e0e2       __tosnan1                  1000f0e2     LIBCMT:_87disp_.obj
 0001:0000e10d       __nosnan2                  1000f10d     LIBCMT:_87disp_.obj
 0001:0000e10f       __tosnan2                  1000f10f     LIBCMT:_87disp_.obj
 0001:0000e137       __nan2                     1000f137     LIBCMT:_87disp_.obj
 0001:0000e176       __rtindfpop                1000f176     LIBCMT:_87disp_.obj
 0001:0000e178       __rtindfnpop               1000f178     LIBCMT:_87disp_.obj
 0001:0000e189       __rttosnpopde              1000f189     LIBCMT:_87disp_.obj
 0001:0000e193       __rtchsifneg               1000f193     LIBCMT:_87disp_.obj
 0001:0000e19a       ___sse2_available_init     1000f19a f   LIBCMT:cpu_disp.obj
 0001:0000e1aa       __malloc_crt               1000f1aa f   LIBCMT:crtheap.obj
 0001:0000e1ef       __calloc_crt               1000f1ef f   LIBCMT:crtheap.obj
 0001:0000e23b       __realloc_crt              1000f23b f   LIBCMT:crtheap.obj
 0001:0000e289       __recalloc_crt             1000f289 f   LIBCMT:crtheap.obj
 0001:0000e2db       __msize                    1000f2db f   LIBCMT:msize.obj
 0001:0000e30e       ___crtCorExitProcess       1000f30e f   LIBCMT:crt0dat.obj
 0001:0000e339       ___crtExitProcess          1000f339 f   LIBCMT:crt0dat.obj
 0001:0000e351       __lockexit                 1000f351 f   LIBCMT:crt0dat.obj
 0001:0000e35a       __unlockexit               1000f35a f   LIBCMT:crt0dat.obj
 0001:0000e363       __init_pointers            1000f363 f   LIBCMT:crt0dat.obj
 0001:0000e396       __initterm_e               1000f396 f   LIBCMT:crt0dat.obj
 0001:0000e3ba       __cinit                    1000f3ba f   LIBCMT:crt0dat.obj
 0001:0000e591       __exit                     1000f591 f   LIBCMT:crt0dat.obj
 0001:0000e5a7       __cexit                    1000f5a7 f   LIBCMT:crt0dat.obj
 0001:0000e5b6       __amsg_exit                1000f5b6 f   LIBCMT:crt0dat.obj
 0001:0000e5e0       __SEH_prolog4              1000f5e0 f   LIBCMT:sehprolg4.obj
 0001:0000e625       __SEH_epilog4              1000f625 f   LIBCMT:sehprolg4.obj
 0001:0000e640       __except_handler4          1000f640 f   LIBCMT:chandler4.obj
 0001:0000e7cf       ?_Type_info_dtor@type_info@@CAXPAV1@@Z 1000f7cf f   LIBCMT:typname.obj
 0001:0000e840       _strcmp                    1000f840 f   LIBCMT:strcmp.obj
 0001:0000e8c8       _abort                     1000f8c8 f   LIBCMT:abort.obj
 0001:0000e8fb       __set_abort_behavior       1000f8fb f   LIBCMT:abort.obj
 0001:0000e91c       __GET_RTERRMSG             1000f91c f   LIBCMT:crt0msg.obj
 0001:0000e942       __NMSG_WRITE               1000f942 f   LIBCMT:crt0msg.obj
 0001:0000eaf1       __FF_MSGBANNER             1000faf1 f   LIBCMT:crt0msg.obj
 0001:0000eb2a       __initp_misc_purevirt      1000fb2a f   LIBCMT:inithelp.obj
 0001:0000eb39       ___iob_func                1000fb39 f   LIBCMT:_file.obj
 0001:0000eb3f       ___initstdio               1000fb3f f   LIBCMT:_file.obj
 0001:0000ebf0       ___endstdio                1000fbf0 f   LIBCMT:_file.obj
 0001:0000ec10       __lock_file                1000fc10 f   LIBCMT:_file.obj
 0001:0000ec51       __lock_file2               1000fc51 f   LIBCMT:_file.obj
 0001:0000ec83       __unlock_file              1000fc83 f   LIBCMT:_file.obj
 0001:0000ecbf       __unlock_file2             1000fcbf f   LIBCMT:_file.obj
 0001:0000ecee       __stbuf                    1000fcee f   LIBCMT:_sftbuf.obj
 0001:0000ed8a       __ftbuf                    1000fd8a f   LIBCMT:_sftbuf.obj
 0001:0000ee65       __output_l                 1000fe65 f   LIBCMT:output.obj
 0001:0000fa11       __initp_misc_invarg        10010a11 f   LIBCMT:invarg.obj
 0001:0000fa20       __call_reportfault         10010a20 f   LIBCMT:invarg.obj
 0001:0000fb49       __invoke_watson            10010b49 f   LIBCMT:invarg.obj
 0001:0000fb6e       __invalid_parameter        10010b6e f   LIBCMT:invarg.obj
 0001:0000fb9b       __invalid_parameter_noinfo 10010b9b f   LIBCMT:invarg.obj
 0001:0000fbab       __get_errno_from_oserr     10010bab f   LIBCMT:dosmap.obj
 0001:0000fbed       __errno                    10010bed f   LIBCMT:dosmap.obj
 0001:0000fc00       ___doserrno                10010c00 f   LIBCMT:dosmap.obj
 0001:0000fc13       __dosmaperr                10010c13 f   LIBCMT:dosmap.obj
 0001:0000fc36       _free                      10010c36 f   LIBCMT:free.obj
 0001:0000fc70       ??0exception@std@@QAE@ABQBDH@Z 10010c70 f   LIBCMT:stdexcpt.obj
 0001:0000fc8d       ?what@exception@std@@UBEPBDXZ 10010c8d f   LIBCMT:stdexcpt.obj
 0001:0000fc9a       ?_Copy_str@exception@std@@AAEXPBD@Z 10010c9a f   LIBCMT:stdexcpt.obj
 0001:0000fcda       ?_Tidy@exception@std@@AAEXXZ 10010cda f   LIBCMT:stdexcpt.obj
 0001:0000fcf8       ??4exception@std@@QAEAAV01@ABV01@@Z 10010cf8 f   LIBCMT:stdexcpt.obj
 0001:0000fd2d       ??1exception@std@@UAE@XZ   10010d2d f   LIBCMT:stdexcpt.obj
 0001:0000fd38       ??_Eexception@std@@UAEPAXI@Z 10010d38 f i LIBCMT:stdexcpt.obj
 0001:0000fd38       ??_Gexception@std@@UAEPAXI@Z 10010d38 f i LIBCMT:stdexcpt.obj
 0001:0000fd5f       ??0exception@std@@QAE@ABV01@@Z 10010d5f f   LIBCMT:stdexcpt.obj
 0001:0000fd84       _malloc                    10010d84 f   LIBCMT:malloc.obj
 0001:0000fe18       __initp_heap_handler       10010e18 f   LIBCMT:handler.obj
 0001:0000fe27       __callnewh                 10010e27 f   LIBCMT:handler.obj
 0001:0000fe4f       __CxxThrowException@8      10010e4f f   LIBCMT:throw.obj
 0001:0000fe9b       __VEC_memcpy               10010e9b f   LIBCMT:p4_memcpy.obj
 0001:0000ff9e       __encoded_null             10010f9e f   LIBCMT:tidtable.obj
 0001:0000ffa7       ___crtTlsAlloc@4           10010fa7 f   LIBCMT:tidtable.obj
 0001:0000ffb0       ___set_flsgetvalue         10010fb0 f   LIBCMT:tidtable.obj
 0001:0000ffe5       __mtterm                   10010fe5 f   LIBCMT:tidtable.obj
 0001:00010022       __initptd                  10011022 f   LIBCMT:tidtable.obj
 0001:000100d6       __getptd_noexit            100110d6 f   LIBCMT:tidtable.obj
 0001:0001014f       __getptd                   1001114f f   LIBCMT:tidtable.obj
 0001:00010169       __freefls@4                10011169 f   LIBCMT:tidtable.obj
 0001:00010298       __freeptd                  10011298 f   LIBCMT:tidtable.obj
 0001:00010306       __mtinit                   10011306 f   LIBCMT:tidtable.obj
 0001:00010481       __ioinit                   10011481 f   LIBCMT:ioinit.obj
 0001:000106c6       __ioterm                   100116c6 f   LIBCMT:ioinit.obj
 0001:00010719       __setenvp                  10011719 f   LIBCMT:stdenvp.obj
 0001:0001098f       __setargv                  1001198f f   LIBCMT:stdargv.obj
 0001:00010a4a       ___crtGetEnvironmentStringsA 10011a4a f   LIBCMT:a_env.obj
 0001:00010ae1       __RTC_Initialize           10011ae1 f   LIBCMT:_initsect_.obj
 0001:00010b07       __RTC_Terminate            10011b07 f   LIBCMT:_initsect_.obj
 0001:00010b2d       __heap_init                10011b2d f   LIBCMT:heapinit.obj
 0001:00010b4b       __heap_term                10011b4b f   LIBCMT:heapinit.obj
 0001:00010b5f       __XcptFilter               10011b5f f   LIBCMT:winxfltr.obj
 0001:00010ca9       ___CppXcptFilter           10011ca9 f   LIBCMT:winxfltr.obj
 0001:00010cc9       _DllMain@12                10011cc9 f   LIBCMT:dllmain.obj
 0001:00010ccf       ___security_init_cookie    10011ccf f   LIBCMT:gs_support.obj
 0001:00010d70       _strlen                    10011d70 f   LIBCMT:strlen.obj
 0001:00010eb2       __input_l                  10011eb2 f   LIBCMT:input.obj
 0001:000120d9       ___updatetmbcinfo          100130d9 f   LIBCMT:mbctype.obj
 0001:000121f9       __setmbcp_nolock           100131f9 f   LIBCMT:mbctype.obj
 0001:000123e2       __setmbcp                  100133e2 f   LIBCMT:mbctype.obj
 0001:0001257c       ___initmbctable            1001357c f   LIBCMT:mbctype.obj
 0001:0001259a       ___addlocaleref            1001359a f   LIBCMT:localref.obj
 0001:00012629       ___removelocaleref         10013629 f   LIBCMT:localref.obj
 0001:000126c2       ___freetlocinfo            100136c2 f   LIBCMT:localref.obj
 0001:0001280d       __updatetlocinfoEx_nolock  1001380d f   LIBCMT:localref.obj
 0001:0001285a       ___updatetlocinfo          1001385a f   LIBCMT:localref.obj
 0001:000128d3       __fltin2                   100138d3 f   LIBCMT:_cfin_.obj
 0001:0001297a       __isctype_l                1001397a f   LIBCMT:isctype.obj
 0001:00012a32       @__security_check_cookie@4 10013a32 f   LIBCMT:secchk.obj
 0001:00012a41       ___strgtold12_l            10013a41 f   LIBCMT:_strgtold_.obj
 0001:0001311d       __flsbuf                   1001411d f   LIBCMT:_flsbuf.obj
 0001:00013281       __freea                    10014281 f i LIBCMT:a_map.obj
 0001:00013488       ___crtLCMapStringA         10014488 f   LIBCMT:a_map.obj
 0001:000134ce       __isleadbyte_l             100144ce f i LIBCMT:_wctype.obj
 0001:00013506       _isleadbyte                10014506 f i LIBCMT:_wctype.obj
 0001:00013519       __VEC_memzero              10014519 f   LIBCMT:p4_memset.obj
 0001:000135d3       __mtinitlocks              100145d3 f   LIBCMT:mlock.obj
 0001:0001361d       __mtdeletelocks            1001461d f   LIBCMT:mlock.obj
 0001:00013674       __unlock                   10014674 f   LIBCMT:mlock.obj
 0001:0001368b       __mtinitlocknum            1001468b f   LIBCMT:mlock.obj
 0001:0001374d       __lock                     1001474d f   LIBCMT:mlock.obj
 0001:00013780       __aulldvrm                 10014780 f   LIBCMT:ulldvrm.obj
 0001:00013820       ___libm_error_support      10014820 f   LIBCMT:_libm_error_.obj
 0001:00013aec       __sse2_mathfcns_init       10014aec f   LIBCMT:_mathfcns_.obj
 0001:00013afc       __floor_default            10014afc f   LIBCMT:_floor_.obj
 0001:00013bf0       __CIpow_pentium4           10014bf0 f   LIBCMT:_pow_pentium4_.obj
 0001:00013c09       __pow_pentium4             10014c09     LIBCMT:_pow_pentium4_.obj
 0001:00014761       __fFEXP                    10015761     LIBCMT:_87tran_.obj
 0001:000147b8       __rtinfpopse               100157b8     LIBCMT:_87tran_.obj
 0001:000147ba       __rtinfnpopse              100157ba     LIBCMT:_87tran_.obj
 0001:000147ca       __fFLN                     100157ca     LIBCMT:_87tran_.obj
 0001:0001487f       __rtinfpop                 1001587f     LIBCMT:_87tran_.obj
 0001:00014881       __rtinfnpop                10015881     LIBCMT:_87tran_.obj
 0001:0001489e       __ffexpm1                  1001589e     LIBCMT:_87tran_.obj
 0001:00014950       __startTwoArgErrorHandling 10015950 f   LIBCMT:_genexcep_.obj
 0001:00014967       __startOneArgErrorHandling 10015967 f   LIBCMT:_genexcep_.obj
 0001:000149b0       __twoToTOS                 100159b0 f   LIBCMT:_common_.obj
 0001:000149c5       __load_CW                  100159c5 f   LIBCMT:_common_.obj
 0001:000149dc       __convertTOStoQNaN         100159dc f   LIBCMT:_common_.obj
 0001:000149f5       __fload_withFB             100159f5 f   LIBCMT:_common_.obj
 0001:00014a38       __checkTOS_withFB          10015a38 f   LIBCMT:_common_.obj
 0001:00014a4e       __fast_exit                10015a4e f   LIBCMT:_common_.obj
 0001:00014a5b       __math_exit                10015a5b f   LIBCMT:_common_.obj
 0001:00014a85       __check_overflow_exit      10015a85 f   LIBCMT:_common_.obj
 0001:00014a99       __check_range_exit         10015a99 f   LIBCMT:_common_.obj
 0001:00014b3c       __d_inttype                10015b3c f   LIBCMT:_powhlp_.obj
 0001:00014ba6       __powhlp                   10015ba6 f   LIBCMT:_powhlp_.obj
 0001:00014ce0       __CIacos_pentium4          10015ce0 f   LIBCMT:_acos_pentium4_.obj
 0001:00014cf8       __acos_pentium4            10015cf8     LIBCMT:_acos_pentium4_.obj
 0001:00015240       _cos                       10016240 f   LIBCMT:_cos_.obj
 0001:00015280       __CIcos                    10016280 f   LIBCMT:_cos_.obj
 0001:000152bb       __CIcos_default            100162bb f   LIBCMT:_cos_.obj
 0001:000152cf       __cos_default              100162cf     LIBCMT:_cos_.obj
 0001:00015370       _sin                       10016370 f   LIBCMT:_sin_.obj
 0001:000153b0       __CIsin                    100163b0 f   LIBCMT:_sin_.obj
 0001:000153eb       __CIsin_default            100163eb f   LIBCMT:_sin_.obj
 0001:000153ff       __sin_default              100163ff     LIBCMT:_sin_.obj
 0001:000154a0       _tan                       100164a0 f   LIBCMT:_tan_.obj
 0001:000154e0       __CItan                    100164e0 f   LIBCMT:_tan_.obj
 0001:0001551b       __CItan_default            1001651b f   LIBCMT:_tan_.obj
 0001:0001552f       __tan_default              1001652f     LIBCMT:_tan_.obj
 0001:000155d0       __CIasin_pentium4          100165d0 f   LIBCMT:_asin_pentium4_.obj
 0001:000155e8       __asin_pentium4            100165e8     LIBCMT:_asin_pentium4_.obj
 0001:00015b50       _strrchr                   10016b50 f   LIBCMT:strrchr.obj
 0001:00015b7d       __isdigit_l                10016b7d f i LIBCMT:_ctype.obj
 0001:00015bce       _isdigit                   10016bce f i LIBCMT:_ctype.obj
 0001:00015bfc       __isxdigit_l               10016bfc f i LIBCMT:_ctype.obj
 0001:00015c52       _isxdigit                  10016c52 f i LIBCMT:_ctype.obj
 0001:00015c82       __isspace_l                10016c82 f i LIBCMT:_ctype.obj
 0001:00015cd3       _isspace                   10016cd3 f i LIBCMT:_ctype.obj
 0001:00015d01       __atodbl_l                 10016d01 f   LIBCMT:atodbl.obj
 0001:00015da9       __atoflt_l                 10016da9 f   LIBCMT:atodbl.obj
 0001:00015e51       _strcpy_s                  10016e51 f   LIBCMT:strcpy_s.obj
 0001:00015eb0       __fptostr                  10016eb0 f   LIBCMT:_fptostr.obj
 0001:00015f63       ___dtold                   10016f63 f   LIBCMT:_cfout_.obj
 0001:00016016       __fltout2                  10017016 f   LIBCMT:_cfout_.obj
 0001:000160b0       __alldvrm                  100170b0 f   LIBCMT:lldvrm.obj
 0001:00016190       __aullshr                  10017190 f   LIBCMT:ullshr.obj
 0001:000161af       __fptrap                   100171af f   LIBCMT:crt0fp.obj
 0001:000161b8       __controlfp_s              100171b8 f   LIBCMT:_contrlfp_.obj
 0001:00016217       __87except                 10017217 f   LIBCMT:_87except_.obj
 0001:00016356       __calloc_impl              10017356 f   LIBCMT:calloc_impl.obj
 0001:000163d8       _realloc                   100173d8 f   LIBCMT:realloc.obj
 0001:00016485       __recalloc                 10017485 f   LIBCMT:recalloc.obj
 0001:000164f3       ?terminate@@YAXXZ          100174f3 f   LIBCMT:hooks.obj
 0001:0001652c       __initp_eh_hooks           1001752c f   LIBCMT:hooks.obj
 0001:0001653d       __initp_misc_winsig        1001753d f   LIBCMT:winsig.obj
 0001:00016592       ___get_sigabrt             10017592 f   LIBCMT:winsig.obj
 0001:0001659f       _raise                     1001759f f   LIBCMT:winsig.obj
 0001:00016742       __initp_misc_rand_s        10017742 f   LIBCMT:rand_s.obj
 0001:00016760       __ValidateImageBase        10017760 f   LIBCMT:pesect.obj
 0001:000167a0       __FindPESection            100177a0 f   LIBCMT:pesect.obj
 0001:000167f0       __IsNonwritableInCurrentImage 100177f0 f   LIBCMT:pesect.obj
 0001:000168b0       __local_unwind4            100178b0 f   LIBCMT:exsup4.obj
 0001:00016986       __seh_longjmp_unwind4@4    10017986 f   LIBCMT:exsup4.obj
 0001:000169a2       @_EH4_CallFilterFunc@8     100179a2 f   LIBCMT:exsup4.obj
 0001:000169b9       @_EH4_TransferToHandler@8  100179b9 f   LIBCMT:exsup4.obj
 0001:000169d2       @_EH4_GlobalUnwind2@8      100179d2 f   LIBCMT:exsup4.obj
 0001:000169eb       @_EH4_LocalUnwind@16       100179eb f   LIBCMT:exsup4.obj
 0001:00016a02       ___crtMessageBoxW          10017a02 f   LIBCMT:crtmboxw.obj
 0001:00016b6e       _wcscat_s                  10017b6e f   LIBCMT:wcscat_s.obj
 0001:00016be3       _wcsncpy_s                 10017be3 f   LIBCMT:wcsncpy_s.obj
 0001:00016cb0       _wcslen                    10017cb0 f   LIBCMT:wcslen.obj
 0001:00016ccb       _wcscpy_s                  10017ccb f   LIBCMT:wcscpy_s.obj
 0001:00016d2e       __set_error_mode           10017d2e f   LIBCMT:errmode.obj
 0001:00016d6d       __fcloseall                10017d6d f   LIBCMT:closeall.obj
 0001:00016e09       __flush                    10017e09 f   LIBCMT:fflush.obj
 0001:00016e71       __fflush_nolock            10017e71 f   LIBCMT:fflush.obj
 0001:00016f93       __flushall                 10017f93 f   LIBCMT:fflush.obj
 0001:00016f9c       __isatty                   10017f9c f   LIBCMT:isatty.obj
 0001:00016ff2       __fileno                   10017ff2 f   LIBCMT:fileno.obj
 0001:00017018       __wctomb_s_l               10018018 f   LIBCMT:wctomb.obj
 0001:0001716d       _wctomb_s                  1001816d f   LIBCMT:wctomb.obj
 0001:0001718a       __crt_debugger_hook        1001818a f   LIBCMT:dbghook.obj
 0001:000171e5       __ismbblead                100181e5 f   LIBCMT:ismbbyte.obj
 0001:000171fd       __filbuf                   100181fd f   LIBCMT:_filbuf.obj
 0001:0001731f       __ungetc_nolock            1001831f f   LIBCMT:ungetc.obj
 0001:00017402       __mbtowc_l                 10018402 f   LIBCMT:mbtowc.obj
 0001:00017518       _mbtowc                    10018518 f   LIBCMT:mbtowc.obj
 0001:00017619       ___crtGetStringTypeA       10018619 f   LIBCMT:a_str.obj
 0001:00017659       ___free_lc_time            10018659 f   LIBCMT:inittime.obj
 0001:000179d0       ___free_lconv_num          100189d0 f   LIBCMT:initnum.obj
 0001:00017a39       ___free_lconv_mon          10018a39 f   LIBCMT:initmon.obj
 0001:00017b37       __ld12tod                  10018b37 f   LIBCMT:_intrncvt_.obj
 0001:00018088       __ld12tof                  10019088 f   LIBCMT:_intrncvt_.obj
 0001:000185d9       ___report_gsfailure        100195d9 f   LIBCMT:gs_report.obj
 0001:000186df       ___mtold12                 100196df f   LIBCMT:_mantold_.obj
 0001:000188c3       __lseeki64_nolock          100198c3 f   LIBCMT:lseeki64.obj
 0001:00018948       __lseeki64                 10019948 f   LIBCMT:lseeki64.obj
 0001:00018a32       __write_nolock             10019a32 f   LIBCMT:write.obj
 0001:0001912f       __write                    1001a12f f   LIBCMT:write.obj
 0001:00019203       __getbuf                   1001a203 f   LIBCMT:_getbuf.obj
 0001:00019250       _strcspn                   1001a250 f   LIBCMT:strcspn.obj
 0001:000192a0       _strpbrk                   1001a2a0 f   LIBCMT:strpbrk.obj
 0001:000192e0       __SEH_prolog4_GS           1001a2e0 f   LIBCMT:sehprolg4gs.obj
 0001:00019328       __SEH_epilog4_GS           1001a328 f   LIBCMT:sehprolg4gs.obj
 0001:00019337       __matherr                  1001a337 f   LIBCMT:_matherr_.obj
 0001:0001933a       __raise_exc_ex             1001a33a f   LIBCMT:_fpexcept_.obj
 0001:00019616       __raise_exc                1001a616 f   LIBCMT:_fpexcept_.obj
 0001:00019639       __handle_exc               1001a639 f   LIBCMT:_fpexcept_.obj
 0001:0001981d       __set_errno_from_matherr   1001a81d f   LIBCMT:_fpexcept_.obj
 0001:0001984a       __errcode                  1001a84a f   LIBCMT:_fpexcept_.obj
 0001:0001987e       __umatherr                 1001a87e f   LIBCMT:_fpexcept_.obj
 0001:0001991e       __handle_qnan1             1001a91e f   LIBCMT:_fpexcept_.obj
 0001:00019973       __except1                  1001a973 f   LIBCMT:_fpexcept_.obj
 0001:00019a3d       __frnd                     1001aa3d f   LIBCMT:_frnd_.obj
 0001:00019a51       __set_exp                  1001aa51 f   LIBCMT:_util_.obj
 0001:00019a7e       __sptype                   1001aa7e f   LIBCMT:_util_.obj
 0001:00019ae4       __decomp                   1001aae4 f   LIBCMT:_util_.obj
 0001:00019ba7       __statfp                   1001aba7 f   LIBCMT:_fpctrl_.obj
 0001:00019bb7       __clrfp                    1001abb7 f   LIBCMT:_fpctrl_.obj
 0001:00019bc8       __ctrlfp                   1001abc8 f   LIBCMT:_fpctrl_.obj
 0001:00019bf3       __set_statfp               1001abf3 f   LIBCMT:_fpctrl_.obj
 0001:00019c4b       ___set_fpsr_sse2           1001ac4b f   LIBCMT:_fpctrl_.obj
 0001:00019cbd       __fpclass                  1001acbd f   LIBCMT:_ieeemisc_.obj
 0001:00019d60       __CIcos_pentium4           1001ad60 f   LIBCMT:_cos_pentium4_.obj
 0001:00019d78       __cos_pentium4             1001ad78     LIBCMT:_cos_pentium4_.obj
 0001:00019f10       __CIsin_pentium4           1001af10 f   LIBCMT:_sin_pentium4_.obj
 0001:00019f28       __sin_pentium4             1001af28     LIBCMT:_sin_pentium4_.obj
 0001:0001a0e0       __CItan_pentium4           1001b0e0 f   LIBCMT:_tan_pentium4_.obj
 0001:0001a0f8       __tan_pentium4             1001b0f8     LIBCMT:_tan_pentium4_.obj
 0001:0001a340       _$I10_OUTPUT               1001b340 f   LIBCMT:_x10fout_.obj
 0001:0001ad66       __control87                1001bd66 f i LIBCMT:_ieee87_.obj
 0001:0001b080       __global_unwind2           1001c080 f   LIBCMT:exsup.obj
 0001:0001b0e5       __local_unwind2            1001c0e5 f   LIBCMT:exsup.obj
 0001:0001b169       __abnormal_termination     1001c169 f   LIBCMT:exsup.obj
 0001:0001b18c       __NLG_Notify1              1001c18c f   LIBCMT:exsup.obj
 0001:0001b195       __NLG_Notify               1001c195 f   LIBCMT:exsup.obj
 0001:0001b1ac       __NLG_Dispatch2            1001c1ac     LIBCMT:exsup.obj
 0001:0001b1ac       __NLG_Dispatch             1001c1ac     LIBCMT:exsup.obj
 0001:0001b1b4       __NLG_Call                 1001c1b4 f   LIBCMT:exsup.obj
 0001:0001b1b6       __NLG_Return2              1001c1b6     LIBCMT:exsup.obj
 0001:0001b1b7       __fclose_nolock            1001c1b7 f   LIBCMT:fclose.obj
 0001:0001b224       _fclose                    1001c224 f   LIBCMT:fclose.obj
 0001:0001b298       __commit                   1001c298 f   LIBCMT:commit.obj
 0001:0001b371       __read_nolock              1001c371 f   LIBCMT:read.obj
 0001:0001b928       __read                     1001c928 f   LIBCMT:read.obj
 0001:0001ba1e       __free_osfhnd              1001ca1e f   LIBCMT:osfinfo.obj
 0001:0001baa4       __get_osfhandle            1001caa4 f   LIBCMT:osfinfo.obj
 0001:0001bb0d       ___lock_fhandle            1001cb0d f   LIBCMT:osfinfo.obj
 0001:0001bbac       __unlock_fhandle           1001cbac f   LIBCMT:osfinfo.obj
 0001:0001bbd3       __putwch_nolock            1001cbd3 f   LIBCMT:putwch.obj
 0001:0001bc15       __close_nolock             1001cc15 f   LIBCMT:close.obj
 0001:0001bcb1       __close                    1001ccb1 f   LIBCMT:close.obj
 0001:0001bd75       __freebuf                  1001cd75 f   LIBCMT:_freebuf.obj
 0001:0001bda6       ___initconout              1001cda6 f   LIBCMT:initcon.obj
 0001:0001bdc5       ___termconout              1001cdc5 f   LIBCMT:initcon.obj
 0001:0001bde0       ___ascii_strnicmp          1001cde0 f   LIBCMT:_strnicm.obj
 0001:0001be50       ?ConnectTier1Libraries@@YAXPAP6APAXPBDPAH@ZH@Z 1001ce50 f   tier1:tier1.obj
 0001:0001be60       ?DisconnectTier1Libraries@@YAXXZ 1001ce60 f   tier1:tier1.obj
 0001:0001be66       _RtlUnwind@16              1001ce66 f   kernel32:KERNEL32.dll
 0002:00000000       __imp__MultiByteToWideChar@24 1001e000     kernel32:KERNEL32.dll
 0002:00000004       __imp__WideCharToMultiByte@32 1001e004     kernel32:KERNEL32.dll
 0002:00000008       __imp__GetProcAddress@8    1001e008     kernel32:KERNEL32.dll
 0002:0000000c       __imp__GetCurrentProcessId@0 1001e00c     kernel32:KERNEL32.dll
 0002:00000010       __imp__CloseHandle@4       1001e010     kernel32:KERNEL32.dll
 0002:00000014       __imp__WriteConsoleW@20    1001e014     kernel32:KERNEL32.dll
 0002:00000018       __imp__SetStdHandle@8      1001e018     kernel32:KERNEL32.dll
 0002:0000001c       __imp__ReadFile@20         1001e01c     kernel32:KERNEL32.dll
 0002:00000020       __imp__FlushFileBuffers@4  1001e020     kernel32:KERNEL32.dll
 0002:00000024       __imp__GetConsoleMode@8    1001e024     kernel32:KERNEL32.dll
 0002:00000028       __imp__GetConsoleCP@0      1001e028     kernel32:KERNEL32.dll
 0002:0000002c       __imp__SetFilePointer@16   1001e02c     kernel32:KERNEL32.dll
 0002:00000030       __imp__GetStringTypeW@16   1001e030     kernel32:KERNEL32.dll
 0002:00000034       __imp__RtlUnwind@16        1001e034     kernel32:KERNEL32.dll
 0002:00000038       __imp__LoadLibraryW@4      1001e038     kernel32:KERNEL32.dll
 0002:0000003c       __imp__HeapReAlloc@16      1001e03c     kernel32:KERNEL32.dll
 0002:00000040       __imp__EncodePointer@4     1001e040     kernel32:KERNEL32.dll
 0002:00000044       __imp__DecodePointer@4     1001e044     kernel32:KERNEL32.dll
 0002:00000048       __imp__GetCurrentThreadId@0 1001e048     kernel32:KERNEL32.dll
 0002:0000004c       __imp__GetCommandLineA@0   1001e04c     kernel32:KERNEL32.dll
 0002:00000050       __imp__GetLastError@0      1001e050     kernel32:KERNEL32.dll
 0002:00000054       __imp__IsProcessorFeaturePresent@4 1001e054     kernel32:KERNEL32.dll
 0002:00000058       __imp__Sleep@4             1001e058     kernel32:KERNEL32.dll
 0002:0000005c       __imp__HeapSize@12         1001e05c     kernel32:KERNEL32.dll
 0002:00000060       __imp__GetModuleHandleW@4  1001e060     kernel32:KERNEL32.dll
 0002:00000064       __imp__ExitProcess@4       1001e064     kernel32:KERNEL32.dll
 0002:00000068       __imp__WriteFile@20        1001e068     kernel32:KERNEL32.dll
 0002:0000006c       __imp__GetStdHandle@4      1001e06c     kernel32:KERNEL32.dll
 0002:00000070       __imp__GetModuleFileNameW@12 1001e070     kernel32:KERNEL32.dll
 0002:00000074       __imp__EnterCriticalSection@4 1001e074     kernel32:KERNEL32.dll
 0002:00000078       __imp__LeaveCriticalSection@4 1001e078     kernel32:KERNEL32.dll
 0002:0000007c       __imp__UnhandledExceptionFilter@4 1001e07c     kernel32:KERNEL32.dll
 0002:00000080       __imp__SetUnhandledExceptionFilter@4 1001e080     kernel32:KERNEL32.dll
 0002:00000084       __imp__IsDebuggerPresent@0 1001e084     kernel32:KERNEL32.dll
 0002:00000088       __imp__TerminateProcess@8  1001e088     kernel32:KERNEL32.dll
 0002:0000008c       __imp__GetCurrentProcess@0 1001e08c     kernel32:KERNEL32.dll
 0002:00000090       __imp__HeapFree@12         1001e090     kernel32:KERNEL32.dll
 0002:00000094       __imp__HeapAlloc@12        1001e094     kernel32:KERNEL32.dll
 0002:00000098       __imp__RaiseException@16   1001e098     kernel32:KERNEL32.dll
 0002:0000009c       __imp__TlsAlloc@0          1001e09c     kernel32:KERNEL32.dll
 0002:000000a0       __imp__TlsGetValue@4       1001e0a0     kernel32:KERNEL32.dll
 0002:000000a4       __imp__TlsSetValue@8       1001e0a4     kernel32:KERNEL32.dll
 0002:000000a8       __imp__TlsFree@4           1001e0a8     kernel32:KERNEL32.dll
 0002:000000ac       __imp__InterlockedIncrement@4 1001e0ac     kernel32:KERNEL32.dll
 0002:000000b0       __imp__SetLastError@4      1001e0b0     kernel32:KERNEL32.dll
 0002:000000b4       __imp__InterlockedDecrement@4 1001e0b4     kernel32:KERNEL32.dll
 0002:000000b8       __imp__SetHandleCount@4    1001e0b8     kernel32:KERNEL32.dll
 0002:000000bc       __imp__InitializeCriticalSectionAndSpinCount@8 1001e0bc     kernel32:KERNEL32.dll
 0002:000000c0       __imp__GetFileType@4       1001e0c0     kernel32:KERNEL32.dll
 0002:000000c4       __imp__GetStartupInfoW@4   1001e0c4     kernel32:KERNEL32.dll
 0002:000000c8       __imp__DeleteCriticalSection@4 1001e0c8     kernel32:KERNEL32.dll
 0002:000000cc       __imp__GetModuleFileNameA@12 1001e0cc     kernel32:KERNEL32.dll
 0002:000000d0       __imp__FreeEnvironmentStringsW@4 1001e0d0     kernel32:KERNEL32.dll
 0002:000000d4       __imp__GetEnvironmentStringsW@0 1001e0d4     kernel32:KERNEL32.dll
 0002:000000d8       __imp__HeapCreate@12       1001e0d8     kernel32:KERNEL32.dll
 0002:000000dc       __imp__HeapDestroy@4       1001e0dc     kernel32:KERNEL32.dll
 0002:000000e0       __imp__QueryPerformanceCounter@4 1001e0e0     kernel32:KERNEL32.dll
 0002:000000e4       __imp__GetTickCount@0      1001e0e4     kernel32:KERNEL32.dll
 0002:000000e8       __imp__GetSystemTimeAsFileTime@4 1001e0e8     kernel32:KERNEL32.dll
 0002:000000ec       __imp__GetCPInfo@8         1001e0ec     kernel32:KERNEL32.dll
 0002:000000f0       __imp__GetACP@0            1001e0f0     kernel32:KERNEL32.dll
 0002:000000f4       __imp__GetOEMCP@0          1001e0f4     kernel32:KERNEL32.dll
 0002:000000f8       __imp__IsValidCodePage@4   1001e0f8     kernel32:KERNEL32.dll
 0002:000000fc       __imp__LCMapStringW@24     1001e0fc     kernel32:KERNEL32.dll
 0002:00000100       __imp__CreateFileW@28      1001e100     kernel32:KERNEL32.dll
 0002:00000104       \177KERNEL32_NULL_THUNK_DATA 1001e104     kernel32:KERNEL32.dll
 0002:00000108       __imp__GetCPUInformation   1001e108     tier0:tier0.dll
 0002:0000010c       __imp___AssertValidReadPtr 1001e10c     tier0:tier0.dll
 0002:00000110       __imp___AssertValidWritePtr 1001e110     tier0:tier0.dll
 0002:00000114       __imp__Error               1001e114     tier0:tier0.dll
 0002:00000118       __imp__AssertValidStringPtr 1001e118     tier0:tier0.dll
 0002:0000011c       __imp__Warning             1001e11c     tier0:tier0.dll
 0002:00000120       __imp__g_pMemAlloc         1001e120     tier0:tier0.dll
 0002:00000124       \177tier0_NULL_THUNK_DATA  1001e124     tier0:tier0.dll
 0002:00000128       ___xc_a                    1001e128     LIBCMT:crt0init.obj
 0002:000002e0       ___xc_z                    1001e2e0     LIBCMT:crt0init.obj
 0002:000002e4       ___xi_a                    1001e2e4     LIBCMT:crt0init.obj
 0002:000002fc       ___xi_z                    1001e2fc     LIBCMT:crt0init.obj
 0002:00000300       ___xp_a                    1001e300     LIBCMT:crt0init.obj
 0002:0000030c       ___xp_z                    1001e30c     LIBCMT:crt0init.obj
 0002:00000310       ___xt_a                    1001e310     LIBCMT:crt0init.obj
 0002:00000314       ___xt_z                    1001e314     LIBCMT:crt0init.obj
 0002:00000364       __real@3f800000            1001e364     BaseVSShader.obj
 0002:00000368       __real@3f000000            1001e368     BaseVSShader.obj
 0002:0000036c       __real@40000000            1001e36c     BaseVSShader.obj
 0002:00000370       __real@3ff0000000000000    1001e370     BaseVSShader.obj
 0002:00000378       ??_C@_0P@EDPJKOMO@mat_fullbright?$AA@ 1001e378     BaseVSShader.obj
 0002:00000388       ??_C@_01GBGANLPD@0?$AA@    1001e388     BaseVSShader.obj
 0002:0000038c       ??_C@_0BA@HNOAMPCF@GAUSSIAN_BLUR_6?$AA@ 1001e38c     blur.obj
 0002:0000039c       ??_C@_00CNPNBAHC@?$AA@     1001e39c     blur.obj
 0002:000003ac       ??_7CShader@GAUSSIAN_BLUR_6@@6B@ 1001e3ac     blur.obj
 0002:000003e8       __real@40800000            1001e3e8     blur.obj
 0002:000003ec       ??_C@_0BE@CMFBLPFG@gaussianblur_6_ps30?$AA@ 1001e3ec     blur.obj
 0002:00000400       ??_C@_0BB@DDHMNDHA@screenspace_vs30?$AA@ 1001e400     blur.obj
 0002:00000414       ??_C@_0M@NCINKPCJ@$ISVERTICAL?$AA@ 1001e414     blur.obj
 0002:00000420       ??_C@_0BE@GDIKMFPM@DEBUG_LIGHTING_CTRL?$AA@ 1001e420     debug_lightingctrl.obj
 0002:0000043c       ??_7CShader@DEBUG_LIGHTING_CTRL@@6B@ 1001e43c     debug_lightingctrl.obj
 0002:00000478       ??_C@_0BJ@OOFDLNIL@debug_lighting_ctrl_ps30?$AA@ 1001e478     debug_lightingctrl.obj
 0002:00000494       ??_C@_0BC@PMEMINIB@defconstruct_vs30?$AA@ 1001e494     debug_lightingctrl.obj
 0002:000004a8       ??_C@_0N@FJBEEMCH@SENDWORLDPOS?$AA@ 1001e4a8     debug_lightingctrl.obj
 0002:000004b8       ??_C@_0BN@JCCCKFAK@?6?5?5?5VS?5stat?5var?5?$CFs?5?$DN?5?$CFd?5?$CI?$CFs?$CJ?$AA@ 1001e4b8     debug_lightingctrl.obj
 0002:000004d8       ??_C@_0BC@DEGIJMBN@USEWORLDTRANSFORM?$AA@ 1001e4d8     debug_lightingctrl.obj
 0002:000004ec       ??_C@_0BF@IBBLNGJC@DEBUG_RADIOSITY_GRID?$AA@ 1001e4ec     debug_radiosity_grid.obj
 0002:0000050c       ??_7CShader@DEBUG_RADIOSITY_GRID@@6B@ 1001e50c     debug_radiosity_grid.obj
 0002:00000548       ??_C@_0BK@BIIFAKBN@debug_radiosity_grid_ps30?$AA@ 1001e548     debug_radiosity_grid.obj
 0002:00000564       ??_C@_0BK@JHMFPPLN@debug_radiosity_grid_vs30?$AA@ 1001e564     debug_radiosity_grid.obj
 0002:00000580       ??_C@_0N@MMHMCEPA@DEBUG_SHADOW?$AA@ 1001e580     debug_shadow.obj
 0002:0000059c       ??_7CShader@DEBUG_SHADOW@@6B@ 1001e59c     debug_shadow.obj
 0002:000005d8       ??_C@_0BI@LHFNJANB@debug_shadow_ortho_ps30?$AA@ 1001e5d8     debug_shadow.obj
 0002:000005f0       ??_C@_0P@MDKPEJCF@DEFERRED_BRUSH?$AA@ 1001e5f0     deferred_brush.obj
 0002:0000060c       ??_7CShader@DEFERRED_BRUSH@@6B@ 1001e60c     deferred_brush.obj
 0002:0000064c       ??_7CBasePerMaterialContextData@@6B@ 1001e64c     deferred_brush.obj
 0002:00000654       ??_7CDeferredPerMaterialContextData@@6B@ 1001e654     deferred_brush.obj
 0002:00000658       ??_C@_0BD@FHIKDCGP@LightmappedGeneric?$AA@ 1001e658     deferred_brush.obj
 0002:0000066c       ??_C@_0L@EENFMOFI@MultiBlend?$AA@ 1001e66c     deferred_brush.obj
 0002:00000678       ??_C@_08PFPGNHEE@$BUMPMAP?$AA@ 1001e678     deferred_brush.obj
 0002:00000684       ??_C@_07GDNPHCDH@$SSBUMP?$AA@ 1001e684     deferred_brush.obj
 0002:0000068c       ??_C@_08PFJMIPHP@$LITFACE?$AA@ 1001e68c     deferred_brush.obj
 0002:00000698       ??_C@_0N@BOPHEENG@$PHONG_SCALE?$AA@ 1001e698     deferred_brush.obj
 0002:000006a8       ??_C@_0L@EGCKKDOJ@$PHONG_EXP?$AA@ 1001e6a8     deferred_brush.obj
 0002:000006b4       ??_C@_0M@DEOACEAO@$PHONG_EXP2?$AA@ 1001e6b4     deferred_brush.obj
 0002:000006c0       ??_C@_0L@JAGJBDPJ@$PHONG_MAP?$AA@ 1001e6c0     deferred_brush.obj
 0002:000006cc       ??_C@_0P@NHJMNLLE@$PHONG_FRESNEL?$AA@ 1001e6cc     deferred_brush.obj
 0002:000006dc       ??_C@_0P@KPGJKCOD@$FRESNELRANGES?$AA@ 1001e6dc     deferred_brush.obj
 0002:000006ec       ??_C@_0BE@GEDBJHGM@$ALPHATESTREFERENCE?$AA@ 1001e6ec     deferred_brush.obj
 0002:00000700       ??_C@_07NBEOHNNA@$ENVMAP?$AA@ 1001e700     deferred_brush.obj
 0002:00000708       ??_C@_0BK@PAPJFBHL@shadertest?1shadertest_env?$AA@ 1001e708     deferred_brush.obj
 0002:00000724       ??_C@_06FABHMPLJ@envmap?$AA@ 1001e724     deferred_brush.obj
 0002:0000072c       ??_C@_0M@GKAPIEHF@$ENVMAPTINT?$AA@ 1001e72c     deferred_brush.obj
 0002:00000738       ??_C@_07INOGPGGA@?$FL1?51?51?$FN?$AA@ 1001e738     deferred_brush.obj
 0002:00000740       ??_C@_0M@NEOBNNPM@envmap?5tint?$AA@ 1001e740     deferred_brush.obj
 0002:0000074c       ??_C@_0BA@EPLKPKAO@$ENVMAPCONTRAST?$AA@ 1001e74c     deferred_brush.obj
 0002:0000075c       ??_C@_03MDAFIFFL@0?40?$AA@ 1001e75c     deferred_brush.obj
 0002:00000760       ??_C@_0CG@CIFJOHKP@contrast?50?5?$DN?$DN?5normal?51?5?$DN?$DN?5color?$CK@ 1001e760     deferred_brush.obj
 0002:00000788       ??_C@_0BC@IDPPLOBL@$ENVMAPSATURATION?$AA@ 1001e788     deferred_brush.obj
 0002:0000079c       ??_C@_03HLLJOCDO@1?40?$AA@ 1001e79c     deferred_brush.obj
 0002:000007a0       ??_C@_0CG@MHHCDKGK@saturation?50?5?$DN?$DN?5greyscale?51?5?$DN?$DN?5n@ 1001e7a0     deferred_brush.obj
 0002:000007c8       ??_C@_0M@BLOPGHNE@$ENVMAPMASK?$AA@ 1001e7c8     deferred_brush.obj
 0002:000007d4       ??_C@_0BO@JLAFIMAN@shadertest?1shadertest_envmask?$AA@ 1001e7d4     deferred_brush.obj
 0002:000007f4       ??_C@_0M@KFABDOFN@envmap?5mask?$AA@ 1001e7f4     deferred_brush.obj
 0002:00000800       ??_C@_0P@LDIFNAJJ@$SELFILLUMTINT?$AA@ 1001e800     deferred_brush.obj
 0002:00000810       ??_C@_0BH@DBOPOPED@Self?9illumination?5tint?$AA@ 1001e810     deferred_brush.obj
 0002:00000828       ??_C@_0BM@EFKJOJDH@$SELFILLUM_ENVMAPMASK_ALPHA?$AA@ 1001e828     deferred_brush.obj
 0002:00000844       ??_C@_0DM@OEILIDHN@defines?5that?5self?5illum?5value?5co@ 1001e844     deferred_brush.obj
 0002:00000880       ??_C@_0BC@DMNOIDOB@$SELFILLUMFRESNEL?$AA@ 1001e880     deferred_brush.obj
 0002:00000894       ??_C@_0BD@LKKACLAB@Self?5illum?5fresnel?$AA@ 1001e894     deferred_brush.obj
 0002:000008a8       ??_C@_0P@MCGFDDDI@$SELFILLUMMASK?$AA@ 1001e8a8     deferred_brush.obj
 0002:000008b8       ??_C@_0BH@JAMKOLPG@shadertest?1BaseTexture?$AA@ 1001e8b8     deferred_brush.obj
 0002:000008d0       ??_C@_0EL@ILCJJFMK@If?5we?5bind?5a?5texture?5here?0?5it?5ov@ 1001e8d0     deferred_brush.obj
 0002:0000091c       ??_C@_0O@NGGEHEEP@$BASETEXTURE2?$AA@ 1001e91c     deferred_brush.obj
 0002:0000092c       ??_C@_09JMDECHCP@$BUMPMAP2?$AA@ 1001e92c     deferred_brush.obj
 0002:00000938       ??_C@_0N@GMNFKNNL@$ENVMAPMASK2?$AA@ 1001e938     deferred_brush.obj
 0002:00000948       ??_C@_0BG@IMDJIJHP@$BLENDMODULATETEXTURE?$AA@ 1001e948     deferred_brush.obj
 0002:00000960       ??_C@_0DA@LMGJHLKK@texture?5to?5use?5r?1g?5channels?5for?5@ 1001e960     deferred_brush.obj
 0002:00000990       ??_C@_0BE@FNNNKFKP@$BLENDMASKTRANSFORM?$AA@ 1001e990     deferred_brush.obj
 0002:000009a4       ??_C@_0CO@CGOPOACG@center?5?45?5?45?5scale?51?51?5rotate?50?5@ 1001e9a4     deferred_brush.obj
 0002:000009d4       ??_C@_0CJ@COBOOGPN@$blendmodulatetexture?5texcoord?5t@ 1001e9d4     deferred_brush.obj
 0002:00000a00       ??_C@_0M@HIONGBJN@$MULTIBLEND?$AA@ 1001ea00     deferred_brush.obj
 0002:00000a0c       ??_C@_0O@MPHPEFAO@$BASETEXTURE3?$AA@ 1001ea0c     deferred_brush.obj
 0002:00000a1c       ??_C@_0O@IADONDMJ@$BASETEXTURE4?$AA@ 1001ea1c     deferred_brush.obj
 0002:00000a2c       ??_C@_09IFCPBGGO@$BUMPMAP3?$AA@ 1001ea2c     deferred_brush.obj
 0002:00000a38       ??_C@_09MKGOIAKJ@$BUMPMAP4?$AA@ 1001ea38     deferred_brush.obj
 0002:00000a44       ??_C@_0BH@CNEGABFF@$BLENDMODULATETEXTURE2?$AA@ 1001ea44     deferred_brush.obj
 0002:00000a5c       ??_C@_0BH@DEFNDABE@$BLENDMODULATETEXTURE3?$AA@ 1001ea5c     deferred_brush.obj
 0002:00000a74       ??_C@_0BF@KLEEDHKN@$BLENDMASKTRANSFORM2?$AA@ 1001ea74     deferred_brush.obj
 0002:00000a8c       ??_C@_0BF@LCFPAGOM@$BLENDMASKTRANSFORM3?$AA@ 1001ea8c     deferred_brush.obj
 0002:00000aa4       ??_C@_0BH@GAGPFIPD@DEFERRED_DECALMODULATE?$AA@ 1001eaa4     deferred_decalModulate.obj
 0002:00000ac4       ??_7CShader@DEFERRED_DECALMODULATE@@6B@ 1001eac4     deferred_decalModulate.obj
 0002:00000b00       __real@3ecccccd            1001eb00     deferred_decalModulate.obj
 0002:00000b04       ??_C@_0CF@CFOAJJEH@pShaderAPI?9?$DOGetCurrentNumBones?$CI?$CJ@ 1001eb04     deferred_decalModulate.obj
 0002:00000b2c       ??_C@_0BB@MGGDMHKK@COMPRESSED_VERTS?$AA@ 1001eb2c     deferred_decalModulate.obj
 0002:00000b40       ??_C@_0BH@HMAIIFCO@?$CIint?$CJvertexCompression?$AA@ 1001eb40     deferred_decalModulate.obj
 0002:00000b58       ??_C@_0BN@DNGAPFLJ@?6?5?5?5VS?5dyn?5?5var?5?$CFs?5?$DN?5?$CFd?5?$CI?$CFs?$CJ?$AA@ 1001eb58     deferred_decalModulate.obj
 0002:00000b78       ??_C@_08GPMJLHI@SKINNING?$AA@ 1001eb78     deferred_decalModulate.obj
 0002:00000b84       ??_C@_0BD@FHIGBICJ@decalmodulate_ps30?$AA@ 1001eb84     deferred_decalModulate.obj
 0002:00000b98       ??_C@_0BD@NIMGONIJ@decalmodulate_vs30?$AA@ 1001eb98     deferred_decalModulate.obj
 0002:00000bac       ??_C@_0BD@FGEEHCBO@decalmodulate_ps20?$AA@ 1001ebac     deferred_decalModulate.obj
 0002:00000bc0       ??_C@_0BE@KNJCHADE@decalmodulate_ps20b?$AA@ 1001ebc0     deferred_decalModulate.obj
 0002:00000bd4       ??_C@_0BN@PJPJMJKM@?6?5?5?5PS?5stat?5var?5?$CFs?5?$DN?5?$CFd?5?$CI?$CFs?$CJ?$AA@ 1001ebd4     deferred_decalModulate.obj
 0002:00000bf4       ??_C@_0M@BGIKJPJI@VERTEXALPHA?$AA@ 1001ebf4     deferred_decalModulate.obj
 0002:00000c00       ??_C@_0BD@NJAEIHLO@decalmodulate_vs20?$AA@ 1001ec00     deferred_decalModulate.obj
 0002:00000c14       ??_C@_0BB@HDAGCPJB@LIGHTING_PREVIEW?$AA@ 1001ec14     deferred_decalModulate.obj
 0002:00000c28       ??_C@_0BK@OMHDPHIH@nLightingPreviewMode?5?$CB?$DN?50?$AA@ 1001ec28     deferred_decalModulate.obj
 0002:00000c44       ??_C@_0M@GCINPLHD@VERTEXCOLOR?$AA@ 1001ec44     deferred_decalModulate.obj
 0002:00000c50       ??_C@_0BA@JNFKMELP@bHasVertexAlpha?$AA@ 1001ec50     deferred_decalModulate.obj
 0002:00000c60       ??_C@_0N@EFADPCHG@$FOGEXPONENT?$AA@ 1001ec60     deferred_decalModulate.obj
 0002:00000c70       ??_C@_03KHGJEAFP@0?44?$AA@ 1001ec70     deferred_decalModulate.obj
 0002:00000c74       ??_C@_0BL@IOBOMOOF@exponent?5to?5tweak?5fog?5fade?$AA@ 1001ec74     deferred_decalModulate.obj
 0002:00000c90       ??_C@_09MEDFHNGE@$FOGSCALE?$AA@ 1001ec90     deferred_decalModulate.obj
 0002:00000c9c       ??_C@_0BI@KDHAFPHD@scale?5to?5tweak?5fog?5fade?$AA@ 1001ec9c     deferred_decalModulate.obj
 0002:00000cb4       ??_C@_0P@DOOLICPP@DEFERRED_MODEL?$AA@ 1001ecb4     deferred_model.obj
 0002:00000ccc       ??_7CShader@DEFERRED_MODEL@@6B@ 1001eccc     deferred_model.obj
 0002:00000d08       ??_C@_0BB@HPMBPLJH@VertexlitGeneric?$AA@ 1001ed08     deferred_model.obj
 0002:00000d1c       ??_C@_03LOHCHBBO@0?45?$AA@ 1001ed1c     deferred_model.obj
 0002:00000d20       ??_C@_0P@EPJMFIJC@$ENVMAPFRESNEL?$AA@ 1001ed20     deferred_model.obj
 0002:00000d30       ??_C@_09JOINEECP@$RIMLIGHT?$AA@ 1001ed30     deferred_model.obj
 0002:00000d3c       ??_C@_0BF@BFOOEHP@enables?5rim?5lighting?$AA@ 1001ed3c     deferred_model.obj
 0002:00000d54       ??_C@_0BC@HMMNDGGP@$RIMLIGHTEXPONENT?$AA@ 1001ed54     deferred_model.obj
 0002:00000d68       ??_C@_03EMGHBCAM@4?40?$AA@ 1001ed68     deferred_model.obj
 0002:00000d6c       ??_C@_0BI@ILNFICKJ@Exponent?5for?5rim?5lights?$AA@ 1001ed6c     deferred_model.obj
 0002:00000d84       ??_C@_0BF@LAABNIJ@$RIMLIGHTALBEDOSCALE?$AA@ 1001ed84     deferred_model.obj
 0002:00000d9c       ??_C@_0BO@LCOBGEOD@Albedo?5influence?5on?5rim?5light?$AA@ 1001ed9c     deferred_model.obj
 0002:00000dbc       ??_C@_0O@JJAEIEBH@$RIMLIGHTTINT?$AA@ 1001edbc     deferred_model.obj
 0002:00000dcc       ??_C@_0BE@GGCGFFDO@Tint?5for?5rim?5lights?$AA@ 1001edcc     deferred_model.obj
 0002:00000de0       ??_C@_0BM@IAGOGHJF@$RIMLIGHT_MODULATE_BY_LIGHT?$AA@ 1001ede0     deferred_model.obj
 0002:00000dfc       ??_C@_0BP@EMFNPGAG@Modulate?5rimlight?5by?5lighting?4?$AA@ 1001edfc     deferred_model.obj
 0002:00000e20       ??_C@_0BO@DKKIBBEF@deferred_radiosity_multiplier?$AA@ 1001ee20     deferred_utility.obj
 0002:00000e44       __real@3e99999a            1001ee44     defpass_composite.obj
 0002:00000e48       ??_C@_0BN@FGLLJJBP@?6?5?5?5PS?5dyn?5?5var?5?$CFs?5?$DN?5?$CFd?5?$CI?$CFs?$CJ?$AA@ 1001ee48     defpass_composite.obj
 0002:00000e68       ??_C@_0N@DELELAG@PIXELFOGTYPE?$AA@ 1001ee68     defpass_composite.obj
 0002:00000e78       ??_C@_0BP@JLAOKCDG@pShaderAPI?9?$DOGetPixelFogCombo?$CI?$CJ?$AA@ 1001ee78     defpass_composite.obj
 0002:00000e98       ??_C@_08DFPBFCBO@MORPHING?$AA@ 1001ee98     defpass_composite.obj
 0002:00000ea4       ??_C@_0DG@DBPIPLNG@?$CIbModel?5?$CG?$CG?5pShaderAPI?9?$DOIsHWMorph@ 1001eea4     defpass_composite.obj
 0002:00000edc       ??_C@_0DJ@BACNMNGE@?$CIbModel?5?$CG?$CG?5pShaderAPI?9?$DOGetCurren@ 1001eedc     defpass_composite.obj
 0002:00000f18       ??_C@_0CL@LECLDCNL@?$CIbModel?5?$CG?$CG?5?$CIint?$CJvertexCompressio@ 1001ef18     defpass_composite.obj
 0002:00000f44       ??_C@_0P@JHFOHMJO@composite_ps30?$AA@ 1001ef44     defpass_composite.obj
 0002:00000f54       ??_C@_0BH@MKPDKDLC@SELFILLUM_ENVMAP_ALPHA?$AA@ 1001ef54     defpass_composite.obj
 0002:00000f6c       ??_C@_0BL@HKGEMNFI@bSelfIllumMaskInEnvmapMask?$AA@ 1001ef6c     defpass_composite.obj
 0002:00000f88       ??_C@_0P@KAOABHGG@SELFILLUM_MASK?$AA@ 1001ef88     defpass_composite.obj
 0002:00000f98       ??_C@_0P@LJNKJCEO@bSelfIllumMask?$AA@ 1001ef98     defpass_composite.obj
 0002:00000fa8       ??_C@_09MIIMKPBB@SELFILLUM?$AA@ 1001efa8     defpass_composite.obj
 0002:00000fb4       ??_C@_0L@DADJGCGD@bSelfIllum?$AA@ 1001efb4     defpass_composite.obj
 0002:00000fc0       ??_C@_0BG@ELKKFHPE@RIMLIGHTMODULATELIGHT?$AA@ 1001efc0     defpass_composite.obj
 0002:00000fd8       ??_C@_0BC@LLOCCKB@bRimLightModLight?$AA@ 1001efd8     defpass_composite.obj
 0002:00000fec       ??_C@_08NNLIJLFN@RIMLIGHT?$AA@ 1001efec     defpass_composite.obj
 0002:00000ff8       ??_C@_09PHNIIKHK@bRimLight?$AA@ 1001eff8     defpass_composite.obj
 0002:00001004       ??_C@_0N@JKJGIGOK@PHONGFRESNEL?$AA@ 1001f004     defpass_composite.obj
 0002:00001014       ??_C@_0O@HOMAPJKF@bPhongFresnel?$AA@ 1001f014     defpass_composite.obj
 0002:00001024       ??_C@_0O@ELENHJEP@ENVMAPFRESNEL?$AA@ 1001f024     defpass_composite.obj
 0002:00001034       ??_C@_0P@EDMJLHGG@bEnvmapFresnel?$AA@ 1001f034     defpass_composite.obj
 0002:00001044       ??_C@_0L@BAIKPANA@ENVMAPMASK?$AA@ 1001f044     defpass_composite.obj
 0002:00001050       ??_C@_0M@DFIBGHDH@bEnvmapMask?$AA@ 1001f050     defpass_composite.obj
 0002:0000105c       ??_C@_06FEDMBBGL@ENVMAP?$AA@ 1001f05c     defpass_composite.obj
 0002:00001064       ??_C@_07PFCKFBPE@bEnvmap?$AA@ 1001f064     defpass_composite.obj
 0002:0000106c       ??_C@_06EOGFDPLI@NOCULL?$AA@ 1001f06c     defpass_composite.obj
 0002:00001074       ??_C@_07COLCFACD@bNoCull?$AA@ 1001f074     defpass_composite.obj
 0002:0000107c       ??_C@_0L@EEAEHAGJ@READNORMAL?$AA@ 1001f07c     defpass_composite.obj
 0002:00001088       ??_C@_0P@DMFEFHHD@bGBufferNormal?$AA@ 1001f088     defpass_composite.obj
 0002:00001098       ??_C@_0M@OPKGEIGN@TRANSLUCENT?$AA@ 1001f098     defpass_composite.obj
 0002:000010a4       ??_C@_0N@EDMFBFLF@bTranslucent?$AA@ 1001f0a4     defpass_composite.obj
 0002:000010b4       ??_C@_09GCBJNDKI@ALPHATEST?$AA@ 1001f0b4     defpass_composite.obj
 0002:000010c0       ??_C@_0L@JNAABLOM@bAlphatest?$AA@ 1001f0c0     defpass_composite.obj
 0002:000010cc       ??_C@_0P@BIBOIJDO@composite_vs30?$AA@ 1001f0cc     defpass_composite.obj
 0002:000010dc       ??_C@_0L@HDIIPGJJ@MULTIBLEND?$AA@ 1001f0dc     defpass_composite.obj
 0002:000010e8       ??_C@_0M@JAOOELEM@bMultiBlend?$AA@ 1001f0e8     defpass_composite.obj
 0002:000010f4       ??_C@_0O@HJHMIDOE@BLENDMODULATE?$AA@ 1001f0f4     defpass_composite.obj
 0002:00001104       ??_C@_0P@IIIOCPJL@bBlendmodulate?$AA@ 1001f104     defpass_composite.obj
 0002:00001114       ??_C@_0N@NMGDLMMJ@BASETEXTURE2?$AA@ 1001f114     defpass_composite.obj
 0002:00001124       ??_C@_0BJ@OHFMDHGJ@bAlbedo2?5?$CG?$CG?5?$CBbMultiBlend?$AA@ 1001f124     defpass_composite.obj
 0002:00001140       ??_C@_06IMFBPHMK@EYEVEC?$AA@ 1001f140     defpass_composite.obj
 0002:00001148       ??_C@_0N@IMMHBBHK@bWorldEyeVec?$AA@ 1001f148     defpass_composite.obj
 0002:00001158       ??_C@_05OONCNBDC@DECAL?$AA@ 1001f158     defpass_composite.obj
 0002:00001160       ??_C@_0BD@GMHLPBIM@bModel?5?$CG?$CG?5bIsDecal?$AA@ 1001f160     defpass_composite.obj
 0002:00001174       ??_C@_0O@KCDELFFA@MORPHING_VTEX?$AA@ 1001f174     defpass_composite.obj
 0002:00001184       ??_C@_0BE@OGAIPAIL@bModel?5?$CG?$CG?5bFastVTex?$AA@ 1001f184     defpass_composite.obj
 0002:00001198       ??_C@_05BJLDAIDO@MODEL?$AA@ 1001f198     defpass_composite.obj
 0002:000011a0       ??_C@_06OFAOMJFH@bModel?$AA@ 1001f1a0     defpass_composite.obj
 0002:000011a8       ??_C@_0BC@JCABGPGD@building_cubemaps?$AA@ 1001f1a8     defpass_composite.obj
 0002:000011c0       __real@3e19999a            1001f1c0     defpass_gbuffer.obj
 0002:000011c4       __real@427c0000            1001f1c4     defpass_gbuffer.obj
 0002:000011c8       ??_C@_0N@FMIALCDM@gbuffer_ps30?$AA@ 1001f1c8     defpass_gbuffer.obj
 0002:000011d8       ??_C@_08FOIDKDOJ@PHONGMAP?$AA@ 1001f1d8     defpass_gbuffer.obj
 0002:000011e4       ??_C@_09HDEPLHPI@bPhongmap?$AA@ 1001f1e4     defpass_gbuffer.obj
 0002:000011f0       ??_C@_07KJMAMPCM@BUMPMAP?$AA@ 1001f1f0     defpass_gbuffer.obj
 0002:000011f8       ??_C@_0BP@FMPBKNFI@bBumpmap?5?$DP?5bSSBump?5?$DP?52?5?3?51?5?3?50?$AA@ 1001f1f8     defpass_gbuffer.obj
 0002:00001218       ??_C@_0N@NDMAEHJM@gbuffer_vs30?$AA@ 1001f218     defpass_gbuffer.obj
 0002:00001228       ??_C@_0BA@IMBNLCIA@bMultiBlendBump?$AA@ 1001f228     defpass_gbuffer.obj
 0002:00001238       ??_C@_08NPABPIFN@BUMPMAP2?$AA@ 1001f238     defpass_gbuffer.obj
 0002:00001244       ??_C@_0BK@OFNOFHFF@bBumpmap2?5?$CG?$CG?5?$CBbMultiBlend?$AA@ 1001f244     defpass_gbuffer.obj
 0002:00001260       ??_C@_0N@HLNNGIBF@TANGENTSPACE?$AA@ 1001f260     defpass_gbuffer.obj
 0002:00001270       ??_C@_08FMFFHDBL@bBumpmap?$AA@ 1001f270     defpass_gbuffer.obj
 0002:00001280       __real@bf800000            1001f280     defpass_shadow.obj
 0002:00001284       ??_C@_09HDFEFAGB@RADIOSITY?$AA@ 1001f284     defpass_shadow.obj
 0002:00001290       ??_C@_0BA@DFFMPFDE@radiosityOutput?$AA@ 1001f290     defpass_shadow.obj
 0002:000012a0       ??_C@_0M@CDNMIAMG@SHADOW_MODE?$AA@ 1001f2a0     defpass_shadow.obj
 0002:000012ac       ??_C@_0L@NBJKIDAF@shadowMode?$AA@ 1001f2ac     defpass_shadow.obj
 0002:000012b8       ??_C@_0BA@PMPPCEKE@shadowpass_ps30?$AA@ 1001f2b8     defpass_shadow.obj
 0002:000012c8       ??_C@_0BA@HDLPNBAE@shadowpass_vs30?$AA@ 1001f2c8     defpass_shadow.obj
 0002:000012d8       ??_C@_0N@EEJKIHIP@MULTITEXTURE?$AA@ 1001f2d8     defpass_shadow.obj
 0002:000012e8       ??_C@_0CI@JOPLEDJF@bMultiBlend?5?$DP?52?5?3?5bBaseTexture2?5@ 1001f2e8     defpass_shadow.obj
 0002:00001318       ??_7IBaseInterface@@6B@    1001f318     IDeferredExt.obj
 0002:0000131c       ??_C@_0BK@EJIGOHLE@deferred_radiosity_enable?$AA@ 1001f31c     IDeferredExt.obj
 0002:0000133c       ??_7CDeferredExtension@@6B@ 1001f33c     IDeferredExt.obj
 0002:00001394       ??_C@_0BM@KPJOJDDC@DeferredExtensionVersion001?$AA@ 1001f394     IDeferredExt.obj
 0002:000013b0       ??_C@_0BA@POIJCFOD@LIGHTING_GLOBAL?$AA@ 1001f3b0     lighting_global.obj
 0002:000013cc       ??_7CShader@LIGHTING_GLOBAL@@6B@ 1001f3cc     lighting_global.obj
 0002:00001408       ??_C@_0L@EALNICCI@HAS_SHADOW?$AA@ 1001f408     lighting_global.obj
 0002:00001414       ??_C@_0N@OAGMLKIC@data?4bShadow?$AA@ 1001f414     lighting_global.obj
 0002:00001424       ??_C@_0BJ@DLCEIJI@lightingpass_global_ps30?$AA@ 1001f424     lighting_global.obj
 0002:00001444       ??_C@_0L@EJCKMAPM@NUM_SIMPLE?$AA@ 1001f444     lighting_pass_basic.obj
 0002:00001450       ??_C@_0CC@POEBNEJ@pExt?9?$DOGetNumActiveLights_Simple?$CI@ 1001f450     lighting_pass_basic.obj
 0002:00001474       ??_C@_0L@DLOPODK@NUM_COOKIE?$AA@ 1001f474     lighting_pass_basic.obj
 0002:00001480       ??_C@_0M@MMKMGIPP@iNumCookied?$AA@ 1001f480     lighting_pass_basic.obj
 0002:0000148c       ??_C@_0N@OPNECPKC@NUM_SHADOWED?$AA@ 1001f48c     lighting_pass_basic.obj
 0002:0000149c       ??_C@_0N@FPKBGPCF@iNumShadowed?$AA@ 1001f49c     lighting_pass_basic.obj
 0002:000014ac       ??_C@_0BE@LHLPNGMP@NUM_SHADOWED_COOKIE?$AA@ 1001f4ac     lighting_pass_basic.obj
 0002:000014c0       ??_C@_0BE@HOABBPFG@iNumShadowedCookied?$AA@ 1001f4c0     lighting_pass_basic.obj
 0002:000014d4       ??_C@_0BI@NHKHKNPC@lightingpass_point_ps30?$AA@ 1001f4d4     lighting_pass_basic.obj
 0002:000014ec       ??_C@_0BH@HGNBOMCE@lightingpass_spot_ps30?$AA@ 1001f4ec     lighting_pass_basic.obj
 0002:00001504       ??_C@_0BJ@KLGBGHDD@bWorldProjection?5?$DP?51?5?3?50?$AA@ 1001f504     lighting_pass_basic.obj
 0002:00001524       ??_C@_0P@FMCMGGJA@VOLUME_SAMPLES?$AA@ 1001f524     lighting_pass_volum.obj
 0002:00001534       ??_C@_0P@PKMEJBLN@iVolumeSamples?$AA@ 1001f534     lighting_pass_volum.obj
 0002:00001544       ??_C@_0L@LALJHION@VOLUME_LOD?$AA@ 1001f544     lighting_pass_volum.obj
 0002:00001550       ??_C@_0BF@HIMDGEPN@volumpass_point_ps30?$AA@ 1001f550     lighting_pass_volum.obj
 0002:00001568       ??_C@_0BE@BIADKPIN@volumpass_spot_ps30?$AA@ 1001f568     lighting_pass_volum.obj
 0002:0000157c       ??_C@_0P@LDLILGGF@LIGHTING_WORLD?$AA@ 1001f57c     lighting_world.obj
 0002:00001594       ??_7CShader@LIGHTING_WORLD@@6B@ 1001f594     lighting_world.obj
 0002:000015d0       ??_C@_0L@NANOGOM@$LIGHTTYPE?$AA@ 1001f5d0     lighting_world.obj
 0002:000015dc       ??_C@_0BB@MPDKFFBN@$WORLDPROJECTION?$AA@ 1001f5dc     lighting_world.obj
 0002:000015f0       ??_C@_0BA@OLACJHOM@LIGHTING_VOLUME?$AA@ 1001f5f0     lighting_volume.obj
 0002:0000160c       ??_7CShader@LIGHTING_VOLUME@@6B@ 1001f60c     lighting_volume.obj
 0002:00001648       ??_C@_0BA@KBLGFIHN@RADIOSITY_BLEND?$AA@ 1001f648     radiosity_blend.obj
 0002:00001664       ??_7CShader@RADIOSITY_BLEND@@6B@ 1001f664     radiosity_blend.obj
 0002:000016a0       ??_C@_0BF@LJJBJODB@radiosity_blend_ps30?$AA@ 1001f6a0     radiosity_blend.obj
 0002:000016b8       ??_C@_0BB@CGEMPBIF@RADIOSITY_GLOBAL?$AA@ 1001f6b8     radiosity_global.obj
 0002:000016d4       ??_7CShader@RADIOSITY_GLOBAL@@6B@ 1001f6d4     radiosity_global.obj
 0002:00001710       ??_C@_07JDMPGCJB@CASCADE?$AA@ 1001f710     radiosity_global.obj
 0002:00001718       ??_C@_06GPFGCBFO@iIndex?$AA@ 1001f718     radiosity_global.obj
 0002:00001720       ??_C@_0BK@ENGBDJMO@radiosity_gen_global_ps30?$AA@ 1001f720     radiosity_global.obj
 0002:0000173c       ??_C@_0BD@FGAKGPBP@radiosity_gen_vs30?$AA@ 1001f73c     radiosity_global.obj
 0002:00001750       ??_C@_0BE@HGMBLJPK@RADIOSITY_PROPAGATE?$AA@ 1001f750     radiosity_propagate.obj
 0002:0000176c       ??_7CShader@RADIOSITY_PROPAGATE@@6B@ 1001f76c     radiosity_propagate.obj
 0002:000017a8       ??_C@_0BJ@IANPHHJL@radiosity_propagate_ps30?$AA@ 1001f7a8     radiosity_propagate.obj
 0002:000017c4       ??_C@_04CINGDHMD@BLUR?$AA@ 1001f7c4     radiosity_propagate.obj
 0002:000017cc       ??_C@_0BB@BNBBIOGE@PARM_INT?$CI?5BLUR?5?$CJ?$AA@ 1001f7cc     radiosity_propagate.obj
 0002:000017e0       ??_C@_0BJ@PJPICDL@radiosity_propagate_vs30?$AA@ 1001f7e0     radiosity_propagate.obj
 0002:000017fc       ??_C@_0L@OKCAPPED@$NORMALMAP?$AA@ 1001f7fc     radiosity_propagate.obj
 0002:00001808       ??_C@_05MDALCGFN@$BLUR?$AA@ 1001f808     radiosity_propagate.obj
 0002:00001810       ??_C@_0BE@NJBIAPFA@SCREENSPACE_COMBINE?$AA@ 1001f810     screenspace_combine.obj
 0002:0000182c       ??_7CShader@SCREENSPACE_COMBINE@@6B@ 1001f82c     screenspace_combine.obj
 0002:00001868       ??_C@_0BJ@PDMNEMNG@screenspace_combine_ps30?$AA@ 1001f868     screenspace_combine.obj
 0002:00001884       ??_C@_0BE@KKLAFHKM@SCREENSPACE_SHADING?$AA@ 1001f884     screenspace_shading.obj
 0002:000018a4       ??_7CShader@SCREENSPACE_SHADING@@6B@ 1001f8a4     screenspace_shading.obj
 0002:000018e0       ??_C@_0CP@OFFOBPMJ@GetDeferredExt?$CI?$CJ?9?$DOIsRadiosityEna@ 1001f8e0     screenspace_shading.obj
 0002:00001910       ??_C@_0BJ@KDMJPACK@screenspace_shading_ps30?$AA@ 1001f910     screenspace_shading.obj
 0002:0000192c       ??_C@_0N@JOAJJCBI@VOLUME_BLEND?$AA@ 1001f92c     volume_blend.obj
 0002:00001944       ??_7CShader@VOLUME_BLEND@@6B@ 1001f944     volume_blend.obj
 0002:00001980       ??_C@_0BC@MMNPPILI@volume_blend_ps30?$AA@ 1001f980     volume_blend.obj
 0002:00001994       ??_C@_0P@ICAHGCFC@VOLUME_PREPASS?$AA@ 1001f994     volume_prepass.obj
 0002:000019ac       ??_7CShader@VOLUME_PREPASS@@6B@ 1001f9ac     volume_prepass.obj
 0002:000019e8       ??_C@_0BE@FNDOFLJP@volume_prepass_ps30?$AA@ 1001f9e8     volume_prepass.obj
 0002:000019fc       ??_C@_0BE@NCHOKODP@volume_prepass_vs30?$AA@ 1001f9fc     volume_prepass.obj
 0002:00001a10       ??_C@_08HDEJNBCC@ss_added?$AA@ 1001fa10     tier1:convar.obj
 0002:00001a1c       ??_C@_02FCBLNKNB@ss?$AA@   1001fa1c     tier1:convar.obj
 0002:00001a20       ??_C@_04CCHAHKJA@user?$AA@ 1001fa20     tier1:convar.obj
 0002:00001a28       ??_C@_0BG@HMGMADBK@clientcmd_can_execute?$AA@ 1001fa28     tier1:convar.obj
 0002:00001a40       ??_C@_0BD@OPIELDHG@server_can_execute?$AA@ 1001fa40     tier1:convar.obj
 0002:00001a54       ??_C@_0L@ONNDKGKI@replicated?$AA@ 1001fa54     tier1:convar.obj
 0002:00001a60       ??_C@_05GHKBAFPA@cheat?$AA@ 1001fa60     tier1:convar.obj
 0002:00001a68       ??_C@_0N@JKDKMKHL@notconnected?$AA@ 1001fa68     tier1:convar.obj
 0002:00001a78       ??_C@_0N@CDKFDNKI@singleplayer?$AA@ 1001fa78     tier1:convar.obj
 0002:00001a88       ??_C@_06LIGDCBBN@notify?$AA@ 1001fa88     tier1:convar.obj
 0002:00001a90       ??_C@_07NEJBDDEA@archive?$AA@ 1001fa90     tier1:convar.obj
 0002:00001a98       ??_C@_06DGDLPBAN@client?$AA@ 1001fa98     tier1:convar.obj
 0002:00001aa0       ??_C@_04MJNAPEEI@game?$AA@ 1001faa0     tier1:convar.obj
 0002:00001aac       ??_7ConCommandBase@@6B@    1001faac     tier1:convar.obj
 0002:00001ae0       ??_7IConVar@@6B@           1001fae0     tier1:convar.obj
 0002:00001b00       ??_C@_0M@EBMLABJH@?$CFi?5?$CFi?5?$CFi?5?$CFi?$AA@ 1001fb00     tier1:convar.obj
 0002:00001b0c       ??_C@_02NJPGOMH@?$CFf?$AA@ 1001fb0c     tier1:convar.obj
 0002:00001b10       __real@7f7fffff            1001fb10     tier1:convar.obj
 0002:00001b14       ??_C@_0DC@BPEMDMOJ@Warning?3?5?5?$CFs?5?$DN?5?8?$CFs?8?5is?5infinite?0@ 1001fb14     tier1:convar.obj
 0002:00001b48       ??_C@_02DPKJAMEF@?$CFd?$AA@ 1001fb48     tier1:convar.obj
 0002:00001b50       ??_7CDefaultAccessor@@6B@  1001fb50     tier1:convar.obj
 0002:00001b54       ??_C@_0DC@FCCBDICF@ConVarRef?5?$CFs?5doesn?8t?5point?5to?5an@ 1001fb54     tier1:convar.obj
 0002:00001b8c       ??_7ConVar@@6BIConVar@@@   1001fb8c     tier1:convar.obj
 0002:00001bb4       ??_7ConVar@@6BConCommandBase@@@ 1001fbb4     tier1:convar.obj
 0002:00001c00       ??_C@_0DD@BMOCNE@ConVar?$CI?$CFs?$CJ?5defined?5with?5infinite@ 1001fc00     tier1:convar.obj
 0002:00001c38       ??_7CEmptyConVar@@6BIConVar@@@ 1001fc38     tier1:convar.obj
 0002:00001c5c       ??_7CEmptyConVar@@6BConCommandBase@@@ 1001fc5c     tier1:convar.obj
 0002:00001ca8       ??_C@_01JOAMLHOP@?9?$AA@   1001fca8     tier1:strtools.obj
 0002:00001cac       ??_C@_0P@GHFPNOJB@bad?5allocation?$AA@ 1001fcac     tier1:interface.obj
 0002:00001cbc       ??_C@_01BJJEKLCA@?$CC?$AA@ 1001fcbc     tier1:utlbuffer.obj
 0002:00001cc0       ??_C@_01GEODFPGF@?8?$AA@   1001fcc0     tier1:utlbuffer.obj
 0002:00001cc4       ??_C@_01OGPIMHDM@?$DP?$AA@ 1001fcc4     tier1:utlbuffer.obj
 0002:00001cc8       ??_C@_01KICIPPFI@?2?$AA@   1001fcc8     tier1:utlbuffer.obj
 0002:00001ccc       ??_C@_01MCMALHOG@a?$AA@    1001fccc     tier1:utlbuffer.obj
 0002:00001cd0       ??_C@_01INIBCBCB@f?$AA@    1001fcd0     tier1:utlbuffer.obj
 0002:00001cd4       ??_C@_01KDCPPGHE@r?$AA@    1001fcd4     tier1:utlbuffer.obj
 0002:00001cd8       ??_C@_01OJONOECF@b?$AA@    1001fcd8     tier1:utlbuffer.obj
 0002:00001cdc       ??_C@_01MHEDDDHA@v?$AA@    1001fcdc     tier1:utlbuffer.obj
 0002:00001ce0       ??_C@_01PFHFFBPC@t?$AA@    1001fce0     tier1:utlbuffer.obj
 0002:00001ce4       ??_C@_01EFFIKLCJ@n?$AA@    1001fce4     tier1:utlbuffer.obj
 0002:00001cec       ??_7CUtlCharConversion@@6B@ 1001fcec     tier1:utlbuffer.obj
 0002:00001cf4       ??_7CUtlNoEscConversion@@6B@ 1001fcf4     tier1:utlbuffer.obj
 0002:00001cfc       ??_7CUtlCStringConversion@@6B@ 1001fcfc     tier1:utlbuffer.obj
 0002:00001d00       ??_C@_0BD@DDBDNLPL@GameUISystemMgr001?$AA@ 1001fd00     interfaces:interfaces.obj
 0002:00001d14       ??_C@_0BD@LAPBEDAK@MATCHFRAMEWORK_001?$AA@ 1001fd14     interfaces:interfaces.obj
 0002:00001d28       ??_C@_0BH@KGEMLLBN@RenderSystemSurface001?$AA@ 1001fd28     interfaces:interfaces.obj
 0002:00001d40       ??_C@_0BE@FAMOEOGE@WorldRendererMgr001?$AA@ 1001fd40     interfaces:interfaces.obj
 0002:00001d54       ??_C@_0BA@CCICIDEG@SceneSystem_001?$AA@ 1001fd54     interfaces:interfaces.obj
 0002:00001d64       ??_C@_0BI@BHPBJDM@RenderHardwareConfig001?$AA@ 1001fd64     interfaces:interfaces.obj
 0002:00001d7c       ??_C@_0BA@IKKMFFNE@RenderDevice001?$AA@ 1001fd7c     interfaces:interfaces.obj
 0002:00001d8c       ??_C@_0O@GNEFFBLO@MeshSystem001?$AA@ 1001fd8c     interfaces:interfaces.obj
 0002:00001d9c       ??_C@_0BB@CFGCNABN@VSoundEmitter003?$AA@ 1001fd9c     interfaces:interfaces.obj
 0002:00001db0       ??_C@_0BF@PLKAEACL@VPhysicsCollision007?$AA@ 1001fdb0     interfaces:interfaces.obj
 0002:00001dc8       ??_C@_0BF@IHBOFOAB@VDmeMakeFileUtils001?$AA@ 1001fdc8     interfaces:interfaces.obj
 0002:00001de0       ??_C@_07JAELMMK@VBik001?$AA@ 1001fde0     interfaces:interfaces.obj
 0002:00001de8       ??_C@_07LAKMEFHJ@VAvi001?$AA@ 1001fde8     interfaces:interfaces.obj
 0002:00001df0       ??_C@_0M@FDOOFAJO@MDLCache004?$AA@ 1001fdf0     interfaces:interfaces.obj
 0002:00001dfc       ??_C@_0O@JLMOFHOC@VDataCache003?$AA@ 1001fdfc     interfaces:interfaces.obj
 0002:00001e0c       ??_C@_0BE@MBLMPAED@MatSystemSurface006?$AA@ 1001fe0c     interfaces:interfaces.obj
 0002:00001e20       ??_C@_0N@LHOFGHBG@Localize_001?$AA@ 1001fe20     interfaces:interfaces.obj
 0002:00001e30       ??_C@_0P@PFJGPHGG@VGUI_System010?$AA@ 1001fe30     interfaces:interfaces.obj
 0002:00001e40       ??_C@_0P@PACDEMCC@VGUI_Scheme010?$AA@ 1001fe40     interfaces:interfaces.obj
 0002:00001e50       ??_C@_0BA@NFOMELFH@VGUI_Surface031?$AA@ 1001fe50     interfaces:interfaces.obj
 0002:00001e60       ??_C@_0O@BLBEAEJG@VGUI_Panel009?$AA@ 1001fe60     interfaces:interfaces.obj
 0002:00001e70       ??_C@_0O@KEFJEFH@VGUI_Input005?$AA@ 1001fe70     interfaces:interfaces.obj
 0002:00001e80       ??_C@_0O@KIENLDFE@VGUI_ivgui008?$AA@ 1001fe80     interfaces:interfaces.obj
 0002:00001e90       ??_C@_0BB@PEKNOCJA@VStudioRender026?$AA@ 1001fe90     interfaces:interfaces.obj
 0002:00001ea4       ??_C@_0BD@GAPHACDN@VPrecacheSystem001?$AA@ 1001fea4     interfaces:interfaces.obj
 0002:00001eb8       ??_C@_0BK@BNADKAOO@VResourceAccessControl001?$AA@ 1001feb8     interfaces:interfaces.obj
 0002:00001ed4       ??_C@_0BH@EDCMADAP@QueuedLoaderVersion001?$AA@ 1001fed4     interfaces:interfaces.obj
 0002:00001eec       ??_C@_0L@JKJAFMO@VMDLLIB001?$AA@ 1001feec     interfaces:interfaces.obj
 0002:00001ef8       ??_C@_06EDIJKDPN@VP4002?$AA@ 1001fef8     interfaces:interfaces.obj
 0002:00001f00       ??_C@_0BK@BIOKFMO@COLORCORRECTION_VERSION_1?$AA@ 1001ff00     interfaces:interfaces.obj
 0002:00001f1c       ??_C@_0BC@LDFGJHOB@VBAllocTracker001?$AA@ 1001ff1c     interfaces:interfaces.obj
 0002:00001f30       ??_C@_0BE@PCBACOML@DebugTextureInfo001?$AA@ 1001ff30     interfaces:interfaces.obj
 0002:00001f44       ??_C@_0P@PEGJMBKP@SoundSystem001?$AA@ 1001ff44     interfaces:interfaces.obj
 0002:00001f54       ??_C@_0CA@DFPNNCGF@MaterialSystemHardwareConfig013?$AA@ 1001ff54     interfaces:interfaces.obj
 0002:00001f74       ??_C@_0BD@DFGGKAK@RenderDeviceMgr001?$AA@ 1001ff74     interfaces:interfaces.obj
 0002:00001f88       ??_C@_0BI@OFANKHPJ@NetworkSystemVersion001?$AA@ 1001ff88     interfaces:interfaces.obj
 0002:00001fa0       ??_C@_0BL@PKFICKHM@InputStackSystemVersion001?$AA@ 1001ffa0     interfaces:interfaces.obj
 0002:00001fbc       ??_C@_0BG@BKNMCPPE@InputSystemVersion001?$AA@ 1001ffbc     interfaces:interfaces.obj
 0002:00001fd4       ??_C@_0BF@IJKDMCLN@VMaterialSystem2_001?$AA@ 1001ffd4     interfaces:interfaces.obj
 0002:00001fec       ??_C@_0BD@ECOBDDLG@VMaterialSystem080?$AA@ 1001ffec     interfaces:interfaces.obj
 0002:00002000       ??_C@_0BC@MGEMDEGG@ResourceSystem004?$AA@ 10020000     interfaces:interfaces.obj
 0002:00002014       ??_C@_0BH@HAEACKAF@VNewAsyncFileSystem001?$AA@ 10020014     interfaces:interfaces.obj
 0002:0000202c       ??_C@_0P@PAEMGLHD@VFileSystem017?$AA@ 1002002c     interfaces:interfaces.obj
 0002:0000203c       ??_C@_0CE@KHAPOONI@Physics2?5Interface?5ResourceMgr?5v@ 1002003c     interfaces:interfaces.obj
 0002:00002060       ??_C@_0CB@GAHAMLDC@Physics2?5Interface?5ActorMgr?5v0?41@ 10020060     interfaces:interfaces.obj
 0002:00002084       ??_C@_0BI@BCGHDMHK@Physics2?5Interface?5v0?43?$AA@ 10020084     interfaces:interfaces.obj
 0002:0000209c       ??_C@_0BB@OIAKPELP@VProcessUtils002?$AA@ 1002009c     interfaces:interfaces.obj
 0002:000020b0       ??_C@_0P@EAOECLCP@EventSystem001?$AA@ 100200b0     interfaces:interfaces.obj
 0002:000020c0       ??_C@_0P@DHJOKMPC@VEngineCvar007?$AA@ 100200c0     interfaces:interfaces.obj
 0002:000020d0       ??_C@_0EA@IJLIBNOB@APPSYSTEM?3?5In?5ConnectInterfaces?$CI@ 100200d0     interfaces:interfaces.obj
 0002:00002110       __real@40019999a0000000    10020110     mathlib:color_conversion.obj
 0002:00002118       __real@3fdd1745c0000000    10020118     mathlib:color_conversion.obj
 0002:00002120       __real@437f0000            10020120     mathlib:color_conversion.obj
 0002:00002128       __real@3f50000000000000    10020128     mathlib:color_conversion.obj
 0002:00002130       __real@3e800000            10020130     mathlib:color_conversion.obj
 0002:00002138       __real@406fe00000000000    10020138     mathlib:color_conversion.obj
 0002:00002140       __real@3fec000000000000    10020140     mathlib:color_conversion.obj
 0002:00002148       __real@3f50040100401004    10020148     mathlib:color_conversion.obj
 0002:00002150       __real@3b808081            10020150     mathlib:color_conversion.obj
 0002:00002158       __real@3fc0000000000000    10020158     mathlib:color_conversion.obj
 0002:00002160       __real@3fb3333333333333    10020160     mathlib:color_conversion.obj
 0002:00002168       __real@3d4ccccd            10020168     mathlib:color_conversion.obj
 0002:0000216c       __real@3e000000            1002016c     mathlib:color_conversion.obj
 0002:00002170       __real@40400000            10020170     mathlib:color_conversion.obj
 0002:0000217c       ?nanmask@@3HB              1002017c     mathlib:mathlib_base.obj
 0002:00002180       __real@34000000            10020180     mathlib:mathlib_base.obj
 0002:00002188       __real@3f9921fb54442d18    10020188     mathlib:mathlib_base.obj
 0002:00002190       __real@0000000000000000    10020190     mathlib:mathlib_base.obj
 0002:00002198       __real@3fe0000000000000    10020198     mathlib:mathlib_base.obj
 0002:000021a0       ??_C@_0BL@KENLNLMD@SSE?5and?5SSE2?5are?5required?4?$AA@ 100201a0     mathlib:mathlib_base.obj
 0002:000021d0       ?Four_PointFives@@3T__m128@@B 100201d0     mathlib:sseconst.obj
 0002:000021e0       ?Four_Zeros@@3T__m128@@B   100201e0     mathlib:sseconst.obj
 0002:000021f0       ?Four_Ones@@3T__m128@@B    100201f0     mathlib:sseconst.obj
 0002:00002200       ?Four_Twos@@3T__m128@@B    10020200     mathlib:sseconst.obj
 0002:00002210       ?Four_Threes@@3T__m128@@B  10020210     mathlib:sseconst.obj
 0002:00002220       ?Four_Fours@@3T__m128@@B   10020220     mathlib:sseconst.obj
 0002:00002230       ?Four_Origin@@3T__m128@@B  10020230     mathlib:sseconst.obj
 0002:00002240       ?Four_NegativeOnes@@3T__m128@@B 10020240     mathlib:sseconst.obj
 0002:00002250       ?Four_2ToThe21s@@3T__m128@@B 10020250     mathlib:sseconst.obj
 0002:00002260       ?Four_2ToThe22s@@3T__m128@@B 10020260     mathlib:sseconst.obj
 0002:00002270       ?Four_2ToThe23s@@3T__m128@@B 10020270     mathlib:sseconst.obj
 0002:00002280       ?Four_2ToThe24s@@3T__m128@@B 10020280     mathlib:sseconst.obj
 0002:00002290       ?Four_Thirds@@3T__m128@@B  10020290     mathlib:sseconst.obj
 0002:000022a0       ?Four_TwoThirds@@3T__m128@@B 100202a0     mathlib:sseconst.obj
 0002:000022b0       ?Four_Point225s@@3T__m128@@B 100202b0     mathlib:sseconst.obj
 0002:000022c0       ?Four_Epsilons@@3T__m128@@B 100202c0     mathlib:sseconst.obj
 0002:000022d0       ?Four_FLT_MAX@@3T__m128@@B 100202d0     mathlib:sseconst.obj
 0002:000022e0       ?Four_Negative_FLT_MAX@@3T__m128@@B 100202e0     mathlib:sseconst.obj
 0002:000022f0       ?g_SIMD_0123@@3T__m128@@B  100202f0     mathlib:sseconst.obj
 0002:00002300       ?g_SIMD_clear_signmask@@3QBHB 10020300     mathlib:sseconst.obj
 0002:00002310       ?g_SIMD_signmask@@3QBHB    10020310     mathlib:sseconst.obj
 0002:00002320       ?g_SIMD_lsbmask@@3QBHB     10020320     mathlib:sseconst.obj
 0002:00002330       ?g_SIMD_clear_wmask@@3QBHB 10020330     mathlib:sseconst.obj
 0002:00002340       ?g_SIMD_AllOnesMask@@3QBHB 10020340     mathlib:sseconst.obj
 0002:00002350       ?g_SIMD_Low16BitsMask@@3QBHB 10020350     mathlib:sseconst.obj
 0002:00002360       ?g_SIMD_ComponentMask@@3QAY03$$CBHA 10020360     mathlib:sseconst.obj
 0002:000023a0       ?g_SIMD_SkipTailMask@@3QAY03$$CBHA 100203a0     mathlib:sseconst.obj
 0002:000023e0       ?g_SIMD_EveryOtherMask@@3QBHB 100203e0     mathlib:sseconst.obj
 0002:000023f8       __real@41f0000000000000    100203f8     mathlib:randsse.obj
 0002:00002400       __real@3ef0000000000000    10020400     mathlib:randsse.obj
 0002:00002408       ??_C@_0DO@JEGLGEMI@tint?5value?5to?5be?5applied?5when?5ru@ 10020408     shaderlib:BaseShader.obj
 0002:00002448       ??_C@_09DFNDCFLK@$srgbtint?$AA@ 10020448     shaderlib:BaseShader.obj
 0002:00002454       ??_C@_06KEONFOCA@color2?$AA@ 10020454     shaderlib:BaseShader.obj
 0002:0000245c       ??_C@_07CBJPDCJL@$color2?$AA@ 1002045c     shaderlib:BaseShader.obj
 0002:00002464       ??_C@_0CA@FNHEODEF@Animation?5Frame?5for?5$flashlight?$AA@ 10020464     shaderlib:BaseShader.obj
 0002:00002484       ??_C@_0BI@FBLAAOOF@$flashlighttextureframe?$AA@ 10020484     shaderlib:BaseShader.obj
 0002:0000249c       ??_C@_0BG@DCPCIEMH@effects?1flashlight001?$AA@ 1002049c     shaderlib:BaseShader.obj
 0002:000024b4       ??_C@_0CD@IJMMJMM@flashlight?5spotlight?5shape?5textu@ 100204b4     shaderlib:BaseShader.obj
 0002:000024d8       ??_C@_0BD@OEFGBNBD@$flashlighttexture?$AA@ 100204d8     shaderlib:BaseShader.obj
 0002:000024ec       ??_C@_0CA@IPALKODP@Base?5Texture?5Texcoord?5Transform?$AA@ 100204ec     shaderlib:BaseShader.obj
 0002:0000250c       ??_C@_0BG@CPMMPAAK@$basetexturetransform?$AA@ 1002050c     shaderlib:BaseShader.obj
 0002:00002524       ??_C@_0BA@IPLPKCPL@Animation?5Frame?$AA@ 10020524     shaderlib:BaseShader.obj
 0002:00002534       ??_C@_06NPMBDFBB@$frame?$AA@ 10020534     shaderlib:BaseShader.obj
 0002:0000253c       ??_C@_0CE@NAOMCFML@Base?5Texture?5with?5lighting?5built@ 1002053c     shaderlib:BaseShader.obj
 0002:00002560       ??_C@_0N@NEFMJPPI@$basetexture?$AA@ 10020560     shaderlib:BaseShader.obj
 0002:00002570       ??_C@_05IAEKHIAN@alpha?$AA@ 10020570     shaderlib:BaseShader.obj
 0002:00002578       ??_C@_06JHBGBLFP@$alpha?$AA@ 10020578     shaderlib:BaseShader.obj
 0002:00002580       ??_C@_05PEENBMOG@color?$AA@ 10020580     shaderlib:BaseShader.obj
 0002:00002588       ??_C@_06ODBBHPLE@$color?$AA@ 10020588     shaderlib:BaseShader.obj
 0002:00002590       ??_C@_0P@JEJGAOCB@flags2_defined?$AA@ 10020590     shaderlib:BaseShader.obj
 0002:000025a0       ??_C@_0BA@GAJLMDIE@$flags_defined2?$AA@ 100205a0     shaderlib:BaseShader.obj
 0002:000025b0       ??_C@_06EMKHIFEA@flags2?$AA@ 100205b0     shaderlib:BaseShader.obj
 0002:000025b8       ??_C@_07MJNFOJPL@$flags2?$AA@ 100205b8     shaderlib:BaseShader.obj
 0002:000025c0       ??_C@_0O@OHELCBMC@flags_defined?$AA@ 100205c0     shaderlib:BaseShader.obj
 0002:000025d0       ??_C@_0P@ODJKAABP@$flags_defined?$AA@ 100205d0     shaderlib:BaseShader.obj
 0002:000025e0       ??_C@_05GECEPKB@flags?$AA@ 100205e0     shaderlib:BaseShader.obj
 0002:000025e8       ??_C@_06BBBOCMPD@$flags?$AA@ 100205e8     shaderlib:BaseShader.obj
 0002:000025f8       ??_7CBasePerInstanceContextData@@6B@ 100205f8     shaderlib:BaseShader.obj
 0002:00002600       ??_7CPerInstanceContextData@@6B@ 10020600     shaderlib:BaseShader.obj
 0002:0000260c       ??_7CBaseShader@@6B@       1002060c     shaderlib:BaseShader.obj
 0002:00002650       ??_7IShaderDLL@@6B@        10020650     shaderlib:ShaderDLL.obj
 0002:00002654       ??_C@_0BA@ICDFCBDO@ShaderSystem002?$AA@ 10020654     shaderlib:ShaderDLL.obj
 0002:00002664       ??_C@_0BJ@PPMLNMML@VMaterialSystemConfig004?$AA@ 10020664     shaderlib:ShaderDLL.obj
 0002:00002684       ??_7CShaderDLL@@6BIShaderDLL@@@ 10020684     shaderlib:ShaderDLL.obj
 0002:0000268c       ??_7CShaderDLL@@6BIShaderDLLInternal@@@ 1002068c     shaderlib:ShaderDLL.obj
 0002:000026a4       __real@400ccccd            100206a4     shaderlib:ShaderDLL.obj
 0002:000026a8       ??_C@_0N@OBPFIHDD@ShaderDLL004?$AA@ 100206a8     shaderlib:ShaderDLL.obj
 0002:000026bc       ??_7CShaderLibConVarAccessor@@6B@ 100206bc     shaderlib:shaderlib_cvar.obj
 0002:000026c0       __FPinit                   100206c0     LIBCMT:_fpinit_.obj
 0002:000026d0       __OP_FMODjmptab            100206d0     LIBCMT:_87fmod_.obj
 0002:00002724       ??_7type_info@@6B@         10020724     LIBCMT:typinfo.obj
 0002:0000272c       ??_7bad_alloc@std@@6B@     1002072c     LIBCMT:new.obj
 0002:00002734       __pRawDllMain              10020734     LIBCMT:dllcrt0.obj
 0002:00002734       __pDefaultRawDllMain       10020734     LIBCMT:dllcrt0.obj
 0002:0000dbd8       ??_C@_05KLBDPFGC@e?$CL000?$AA@ 1002bbd8     LIBCMT:cvt.obj
 0002:0000dc10       __indefinite               1002bc10     LIBCMT:_87disp_.obj
 0002:0000dc1a       __piby2                    1002bc1a     LIBCMT:_87disp_.obj
 0002:0000dc3c       ??_C@_0P@MIGLKIOC@CorExitProcess?$AA@ 1002bc3c     LIBCMT:crt0dat.obj
 0002:0000dc4c       ??_C@_1BI@BGOHAHKC@?$AAm?$AAs?$AAc?$AAo?$AAr?$AAe?$AAe?$AA?4?$AAd?$AAl?$AAl?$AA?$AA@ 1002bc4c     LIBCMT:crt0dat.obj
 0002:0000dc64       ??_C@_1BO@BKOMIGKJ@?$AAr?$AAu?$AAn?$AAt?$AAi?$AAm?$AAe?$AA?5?$AAe?$AAr?$AAr?$AAo?$AAr?$AA?5?$AA?$AA@ 1002bc64     LIBCMT:crt0msg.obj
 0002:0000dc84       ??_C@_15JNBOKNOG@?$AA?$AN?$AA?6?$AA?$AA@ 1002bc84     LIBCMT:crt0msg.obj
 0002:0000dc8c       ??_C@_1BM@JBBEPPHI@?$AAT?$AAL?$AAO?$AAS?$AAS?$AA?5?$AAe?$AAr?$AAr?$AAo?$AAr?$AA?$AN?$AA?6?$AA?$AA@ 1002bc8c     LIBCMT:crt0msg.obj
 0002:0000dca8       ??_C@_1BK@KMOMNAAI@?$AAS?$AAI?$AAN?$AAG?$AA?5?$AAe?$AAr?$AAr?$AAo?$AAr?$AA?$AN?$AA?6?$AA?$AA@ 1002bca8     LIBCMT:crt0msg.obj
 0002:0000dcc4       ??_C@_1BO@BFCDCGC@?$AAD?$AAO?$AAM?$AAA?$AAI?$AAN?$AA?5?$AAe?$AAr?$AAr?$AAo?$AAr?$AA?$AN?$AA?6?$AA?$AA@ 1002bcc4     LIBCMT:crt0msg.obj
 0002:0000dce8       ??_C@_1BOO@KGEDBGAJ@?$AAR?$AA6?$AA0?$AA3?$AA3?$AA?$AN?$AA?6?$AA?9?$AA?5?$AAA?$AAt?$AAt?$AAe?$AAm?$AAp?$AAt?$AA?5?$AAt?$AAo?$AA?5?$AAu?$AAs?$AAe?$AA?5?$AAM?$AAS?$AAI?$AAL?$AA?5?$AAc?$AAo?$AAd@ 1002bce8     LIBCMT:crt0msg.obj
 0002:0000ded8       ??_C@_1GG@GOPILAJP@?$AAR?$AA6?$AA0?$AA3?$AA2?$AA?$AN?$AA?6?$AA?9?$AA?5?$AAn?$AAo?$AAt?$AA?5?$AAe?$AAn?$AAo?$AAu?$AAg?$AAh?$AA?5?$AAs?$AAp?$AAa?$AAc?$AAe?$AA?5?$AAf?$AAo?$AAr?$AA?5?$AAl?$AAo@ 1002bed8     LIBCMT:crt0msg.obj
 0002:0000df40       ??_C@_1MG@ENCOOIDF@?$AAR?$AA6?$AA0?$AA3?$AA1?$AA?$AN?$AA?6?$AA?9?$AA?5?$AAA?$AAt?$AAt?$AAe?$AAm?$AAp?$AAt?$AA?5?$AAt?$AAo?$AA?5?$AAi?$AAn?$AAi?$AAt?$AAi?$AAa?$AAl?$AAi?$AAz?$AAe?$AA?5?$AAt@ 1002bf40     LIBCMT:crt0msg.obj
 0002:0000e008       ??_C@_1DO@BMFCDCD@?$AAR?$AA6?$AA0?$AA3?$AA0?$AA?$AN?$AA?6?$AA?9?$AA?5?$AAC?$AAR?$AAT?$AA?5?$AAn?$AAo?$AAt?$AA?5?$AAi?$AAn?$AAi?$AAt?$AAi?$AAa?$AAl?$AAi?$AAz?$AAe?$AAd?$AA?$AN?$AA?6?$AA?$AA@ 1002c008     LIBCMT:crt0msg.obj
 0002:0000e048       ??_C@_1EK@HHFLMAOL@?$AAR?$AA6?$AA0?$AA2?$AA8?$AA?$AN?$AA?6?$AA?9?$AA?5?$AAu?$AAn?$AAa?$AAb?$AAl?$AAe?$AA?5?$AAt?$AAo?$AA?5?$AAi?$AAn?$AAi?$AAt?$AAi?$AAa?$AAl?$AAi?$AAz?$AAe?$AA?5?$AAh?$AAe@ 1002c048     LIBCMT:crt0msg.obj
 0002:0000e098       ??_C@_1GK@MFGOKLAG@?$AAR?$AA6?$AA0?$AA2?$AA7?$AA?$AN?$AA?6?$AA?9?$AA?5?$AAn?$AAo?$AAt?$AA?5?$AAe?$AAn?$AAo?$AAu?$AAg?$AAh?$AA?5?$AAs?$AAp?$AAa?$AAc?$AAe?$AA?5?$AAf?$AAo?$AAr?$AA?5?$AAl?$AAo@ 1002c098     LIBCMT:crt0msg.obj
 0002:0000e108       ??_C@_1GK@MCAAGJMO@?$AAR?$AA6?$AA0?$AA2?$AA6?$AA?$AN?$AA?6?$AA?9?$AA?5?$AAn?$AAo?$AAt?$AA?5?$AAe?$AAn?$AAo?$AAu?$AAg?$AAh?$AA?5?$AAs?$AAp?$AAa?$AAc?$AAe?$AA?5?$AAf?$AAo?$AAr?$AA?5?$AAs?$AAt@ 1002c108     LIBCMT:crt0msg.obj
 0002:0000e178       ??_C@_1EM@MAADIHMB@?$AAR?$AA6?$AA0?$AA2?$AA5?$AA?$AN?$AA?6?$AA?9?$AA?5?$AAp?$AAu?$AAr?$AAe?$AA?5?$AAv?$AAi?$AAr?$AAt?$AAu?$AAa?$AAl?$AA?5?$AAf?$AAu?$AAn?$AAc?$AAt?$AAi?$AAo?$AAn?$AA?5?$AAc@ 1002c178     LIBCMT:crt0msg.obj
 0002:0000e1c8       ??_C@_1GK@FHCKBEFA@?$AAR?$AA6?$AA0?$AA2?$AA4?$AA?$AN?$AA?6?$AA?9?$AA?5?$AAn?$AAo?$AAt?$AA?5?$AAe?$AAn?$AAo?$AAu?$AAg?$AAh?$AA?5?$AAs?$AAp?$AAa?$AAc?$AAe?$AA?5?$AAf?$AAo?$AAr?$AA?5?$AA_?$AAo@ 1002c1c8     LIBCMT:crt0msg.obj
 0002:0000e238       ??_C@_1FC@ECHBIFBC@?$AAR?$AA6?$AA0?$AA1?$AA9?$AA?$AN?$AA?6?$AA?9?$AA?5?$AAu?$AAn?$AAa?$AAb?$AAl?$AAe?$AA?5?$AAt?$AAo?$AA?5?$AAo?$AAp?$AAe?$AAn?$AA?5?$AAc?$AAo?$AAn?$AAs?$AAo?$AAl?$AAe?$AA?5@ 1002c238     LIBCMT:crt0msg.obj
 0002:0000e290       ??_C@_1EC@JIBHAOPH@?$AAR?$AA6?$AA0?$AA1?$AA8?$AA?$AN?$AA?6?$AA?9?$AA?5?$AAu?$AAn?$AAe?$AAx?$AAp?$AAe?$AAc?$AAt?$AAe?$AAd?$AA?5?$AAh?$AAe?$AAa?$AAp?$AA?5?$AAe?$AAr?$AAr?$AAo?$AAr?$AA?$AN?$AA?6@ 1002c290     LIBCMT:crt0msg.obj
 0002:0000e2d8       ??_C@_1FK@BEOGODMC@?$AAR?$AA6?$AA0?$AA1?$AA7?$AA?$AN?$AA?6?$AA?9?$AA?5?$AAu?$AAn?$AAe?$AAx?$AAp?$AAe?$AAc?$AAt?$AAe?$AAd?$AA?5?$AAm?$AAu?$AAl?$AAt?$AAi?$AAt?$AAh?$AAr?$AAe?$AAa?$AAd?$AA?5@ 1002c2d8     LIBCMT:crt0msg.obj
 0002:0000e338       ??_C@_1FI@LOGNIKDM@?$AAR?$AA6?$AA0?$AA1?$AA6?$AA?$AN?$AA?6?$AA?9?$AA?5?$AAn?$AAo?$AAt?$AA?5?$AAe?$AAn?$AAo?$AAu?$AAg?$AAh?$AA?5?$AAs?$AAp?$AAa?$AAc?$AAe?$AA?5?$AAf?$AAo?$AAr?$AA?5?$AAt?$AAh@ 1002c338     LIBCMT:crt0msg.obj
 0002:0000e390       ??_C@_1EG@BEHAGFJD@?$AAR?$AA6?$AA0?$AA1?$AA0?$AA?$AN?$AA?6?$AA?9?$AA?5?$AAa?$AAb?$AAo?$AAr?$AAt?$AA?$CI?$AA?$CJ?$AA?5?$AAh?$AAa?$AAs?$AA?5?$AAb?$AAe?$AAe?$AAn?$AA?5?$AAc?$AAa?$AAl?$AAl?$AAe?$AAd@ 1002c390     LIBCMT:crt0msg.obj
 0002:0000e3d8       ??_C@_1FI@HONFMGBI@?$AAR?$AA6?$AA0?$AA0?$AA9?$AA?$AN?$AA?6?$AA?9?$AA?5?$AAn?$AAo?$AAt?$AA?5?$AAe?$AAn?$AAo?$AAu?$AAg?$AAh?$AA?5?$AAs?$AAp?$AAa?$AAc?$AAe?$AA?5?$AAf?$AAo?$AAr?$AA?5?$AAe?$AAn@ 1002c3d8     LIBCMT:crt0msg.obj
 0002:0000e430       ??_C@_1FE@LLNEDJMD@?$AAR?$AA6?$AA0?$AA0?$AA8?$AA?$AN?$AA?6?$AA?9?$AA?5?$AAn?$AAo?$AAt?$AA?5?$AAe?$AAn?$AAo?$AAu?$AAg?$AAh?$AA?5?$AAs?$AAp?$AAa?$AAc?$AAe?$AA?5?$AAf?$AAo?$AAr?$AA?5?$AAa?$AAr@ 1002c430     LIBCMT:crt0msg.obj
 0002:0000e488       ??_C@_1FK@PGACCAFB@?$AAR?$AA6?$AA0?$AA0?$AA2?$AA?$AN?$AA?6?$AA?9?$AA?5?$AAf?$AAl?$AAo?$AAa?$AAt?$AAi?$AAn?$AAg?$AA?5?$AAp?$AAo?$AAi?$AAn?$AAt?$AA?5?$AAs?$AAu?$AAp?$AAp?$AAo?$AAr?$AAt?$AA?5@ 1002c488     LIBCMT:crt0msg.obj
 0002:0000e598       ??_C@_1EK@MBDPDCGA@?$AAM?$AAi?$AAc?$AAr?$AAo?$AAs?$AAo?$AAf?$AAt?$AA?5?$AAV?$AAi?$AAs?$AAu?$AAa?$AAl?$AA?5?$AAC?$AA?$CL?$AA?$CL?$AA?5?$AAR?$AAu?$AAn?$AAt?$AAi?$AAm?$AAe?$AA?5?$AAL?$AAi?$AAb@ 1002c598     LIBCMT:crt0msg.obj
 0002:0000e5e4       ??_C@_15IABLJNFO@?$AA?6?$AA?6?$AA?$AA@ 1002c5e4     LIBCMT:crt0msg.obj
 0002:0000e5ec       ??_C@_17LGKOMLJ@?$AA?4?$AA?4?$AA?4?$AA?$AA@ 1002c5ec     LIBCMT:crt0msg.obj
 0002:0000e5f4       ??_C@_1CO@EAEJAADC@?$AA?$DM?$AAp?$AAr?$AAo?$AAg?$AAr?$AAa?$AAm?$AA?5?$AAn?$AAa?$AAm?$AAe?$AA?5?$AAu?$AAn?$AAk?$AAn?$AAo?$AAw?$AAn?$AA?$DO?$AA?$AA@ 1002c5f4     LIBCMT:crt0msg.obj
 0002:0000e624       ??_C@_1DE@JNGNBFGO@?$AAR?$AAu?$AAn?$AAt?$AAi?$AAm?$AAe?$AA?5?$AAE?$AAr?$AAr?$AAo?$AAr?$AA?$CB?$AA?6?$AA?6?$AAP?$AAr?$AAo?$AAg?$AAr?$AAa?$AAm?$AA?3?$AA?5?$AA?$AA@ 1002c624     LIBCMT:crt0msg.obj
 0002:0000e658       ??_C@_1O@CEDCILHN@?$AA?$CI?$AAn?$AAu?$AAl?$AAl?$AA?$CJ?$AA?$AA@ 1002c658     LIBCMT:output.obj
 0002:0000e668       ??_C@_06OJHGLDPL@?$CInull?$CJ?$AA@ 1002c668     LIBCMT:output.obj
 0002:0000e670       ___lookuptable             1002c670     LIBCMT:output.obj
 0002:0000e6d0       ??_7exception@std@@6B@     1002c6d0     LIBCMT:stdexcpt.obj
 0002:0000e6d8       ??_C@_0BC@EOODALEL@Unknown?5exception?$AA@ 1002c6d8     LIBCMT:stdexcpt.obj
 0002:0000e70c       ??_C@_1BK@DBDEIDLH@?$AAK?$AAE?$AAR?$AAN?$AAE?$AAL?$AA3?$AA2?$AA?4?$AAD?$AAL?$AAL?$AA?$AA@ 1002c70c     LIBCMT:tidtable.obj
 0002:0000e728       ??_C@_07PEJMOBNF@FlsFree?$AA@ 1002c728     LIBCMT:tidtable.obj
 0002:0000e730       ??_C@_0M@JCPCPOEF@FlsSetValue?$AA@ 1002c730     LIBCMT:tidtable.obj
 0002:0000e73c       ??_C@_0M@GDNOONDI@FlsGetValue?$AA@ 1002c73c     LIBCMT:tidtable.obj
 0002:0000e748       ??_C@_08KNHFBNJ@FlsAlloc?$AA@ 1002c748     LIBCMT:tidtable.obj
 0002:0000e758       __XcptActTab               1002c758     LIBCMT:winxfltr.obj
 0002:0000e7e8       __First_FPE_Indx           1002c7e8     LIBCMT:winxfltr.obj
 0002:0000e7ec       __Num_FPE                  1002c7ec     LIBCMT:winxfltr.obj
 0002:0000e7f0       __XcptActTabSize           1002c7f0     LIBCMT:winxfltr.obj
 0002:0000e7f4       __XcptActTabCount          1002c7f4     LIBCMT:winxfltr.obj
 0002:0000e7f8       ??_C@_1BC@GDGBMEMK@?$AAH?$AAH?$AA?3?$AAm?$AAm?$AA?3?$AAs?$AAs?$AA?$AA@ 1002c7f8     LIBCMT:nlsdata2.obj
 0002:0000e80c       ??_C@_1CI@KNAKOEBC@?$AAd?$AAd?$AAd?$AAd?$AA?0?$AA?5?$AAM?$AAM?$AAM?$AAM?$AA?5?$AAd?$AAd?$AA?0?$AA?5?$AAy?$AAy?$AAy?$AAy?$AA?$AA@ 1002c80c     LIBCMT:nlsdata2.obj
 0002:0000e834       ??_C@_1BC@IEBCMHCM@?$AAM?$AAM?$AA?1?$AAd?$AAd?$AA?1?$AAy?$AAy?$AA?$AA@ 1002c834     LIBCMT:nlsdata2.obj
 0002:0000e848       ??_C@_15CLMNNGEL@?$AAP?$AAM?$AA?$AA@ 1002c848     LIBCMT:nlsdata2.obj
 0002:0000e850       ??_C@_15ODEHAHHF@?$AAA?$AAM?$AA?$AA@ 1002c850     LIBCMT:nlsdata2.obj
 0002:0000e858       ??_C@_1BC@FEMKIFH@?$AAD?$AAe?$AAc?$AAe?$AAm?$AAb?$AAe?$AAr?$AA?$AA@ 1002c858     LIBCMT:nlsdata2.obj
 0002:0000e86c       ??_C@_1BC@BGLIFPF@?$AAN?$AAo?$AAv?$AAe?$AAm?$AAb?$AAe?$AAr?$AA?$AA@ 1002c86c     LIBCMT:nlsdata2.obj
 0002:0000e880       ??_C@_1BA@EPANDLNG@?$AAO?$AAc?$AAt?$AAo?$AAb?$AAe?$AAr?$AA?$AA@ 1002c880     LIBCMT:nlsdata2.obj
 0002:0000e890       ??_C@_1BE@DKAAMBJL@?$AAS?$AAe?$AAp?$AAt?$AAe?$AAm?$AAb?$AAe?$AAr?$AA?$AA@ 1002c890     LIBCMT:nlsdata2.obj
 0002:0000e8a4       ??_C@_1O@PAHLKOAC@?$AAA?$AAu?$AAg?$AAu?$AAs?$AAt?$AA?$AA@ 1002c8a4     LIBCMT:nlsdata2.obj
 0002:0000e8b4       ??_C@_19BIFMLPCD@?$AAJ?$AAu?$AAl?$AAy?$AA?$AA@ 1002c8b4     LIBCMT:nlsdata2.obj
 0002:0000e8c0       ??_C@_19EPFLPGAP@?$AAJ?$AAu?$AAn?$AAe?$AA?$AA@ 1002c8c0     LIBCMT:nlsdata2.obj
 0002:0000e8cc       ??_C@_1M@GJNLMHFD@?$AAA?$AAp?$AAr?$AAi?$AAl?$AA?$AA@ 1002c8cc     LIBCMT:nlsdata2.obj
 0002:0000e8d8       ??_C@_1M@IKEENEDF@?$AAM?$AAa?$AAr?$AAc?$AAh?$AA?$AA@ 1002c8d8     LIBCMT:nlsdata2.obj
 0002:0000e8e4       ??_C@_1BC@JGDDFFAM@?$AAF?$AAe?$AAb?$AAr?$AAu?$AAa?$AAr?$AAy?$AA?$AA@ 1002c8e4     LIBCMT:nlsdata2.obj
 0002:0000e8f8       ??_C@_1BA@EFMEIEBA@?$AAJ?$AAa?$AAn?$AAu?$AAa?$AAr?$AAy?$AA?$AA@ 1002c8f8     LIBCMT:nlsdata2.obj
 0002:0000e908       ??_C@_17EGKACKIF@?$AAD?$AAe?$AAc?$AA?$AA@ 1002c908     LIBCMT:nlsdata2.obj
 0002:0000e910       ??_C@_17BBDMLCIG@?$AAN?$AAo?$AAv?$AA?$AA@ 1002c910     LIBCMT:nlsdata2.obj
 0002:0000e918       ??_C@_17FNLKOI@?$AAO?$AAc?$AAt?$AA?$AA@ 1002c918     LIBCMT:nlsdata2.obj
 0002:0000e920       ??_C@_17HCHCOKMG@?$AAS?$AAe?$AAp?$AA?$AA@ 1002c920     LIBCMT:nlsdata2.obj
 0002:0000e928       ??_C@_17ICPELBCN@?$AAA?$AAu?$AAg?$AA?$AA@ 1002c928     LIBCMT:nlsdata2.obj
 0002:0000e930       ??_C@_17IJPCKHK@?$AAJ?$AAu?$AAl?$AA?$AA@ 1002c930     LIBCMT:nlsdata2.obj
 0002:0000e938       ??_C@_17KCJGOCPB@?$AAJ?$AAu?$AAn?$AA?$AA@ 1002c938     LIBCMT:nlsdata2.obj
 0002:0000e940       ??_C@_17PNNKMEED@?$AAM?$AAa?$AAy?$AA?$AA@ 1002c940     LIBCMT:nlsdata2.obj
 0002:0000e948       ??_C@_17LFPOIHDD@?$AAA?$AAp?$AAr?$AA?$AA@ 1002c948     LIBCMT:nlsdata2.obj
 0002:0000e950       ??_C@_17CKNLEDEC@?$AAM?$AAa?$AAr?$AA?$AA@ 1002c950     LIBCMT:nlsdata2.obj
 0002:0000e958       ??_C@_17LMDJEKJN@?$AAF?$AAe?$AAb?$AA?$AA@ 1002c958     LIBCMT:nlsdata2.obj
 0002:0000e960       ??_C@_17DKNBKCHM@?$AAJ?$AAa?$AAn?$AA?$AA@ 1002c960     LIBCMT:nlsdata2.obj
 0002:0000e968       ??_C@_1BC@ENMNNPAJ@?$AAS?$AAa?$AAt?$AAu?$AAr?$AAd?$AAa?$AAy?$AA?$AA@ 1002c968     LIBCMT:nlsdata2.obj
 0002:0000e97c       ??_C@_1O@PDICJHAG@?$AAF?$AAr?$AAi?$AAd?$AAa?$AAy?$AA?$AA@ 1002c97c     LIBCMT:nlsdata2.obj
 0002:0000e98c       ??_C@_1BC@HHMNLIHE@?$AAT?$AAh?$AAu?$AAr?$AAs?$AAd?$AAa?$AAy?$AA?$AA@ 1002c98c     LIBCMT:nlsdata2.obj
 0002:0000e9a0       ??_C@_1BE@EBOGMDOH@?$AAW?$AAe?$AAd?$AAn?$AAe?$AAs?$AAd?$AAa?$AAy?$AA?$AA@ 1002c9a0     LIBCMT:nlsdata2.obj
 0002:0000e9b4       ??_C@_1BA@ENFBFFEK@?$AAT?$AAu?$AAe?$AAs?$AAd?$AAa?$AAy?$AA?$AA@ 1002c9b4     LIBCMT:nlsdata2.obj
 0002:0000e9c4       ??_C@_1O@MMNBFLIA@?$AAM?$AAo?$AAn?$AAd?$AAa?$AAy?$AA?$AA@ 1002c9c4     LIBCMT:nlsdata2.obj
 0002:0000e9d4       ??_C@_1O@IHNHDHPB@?$AAS?$AAu?$AAn?$AAd?$AAa?$AAy?$AA?$AA@ 1002c9d4     LIBCMT:nlsdata2.obj
 0002:0000e9e4       ??_C@_17GGIBDPIH@?$AAS?$AAa?$AAt?$AA?$AA@ 1002c9e4     LIBCMT:nlsdata2.obj
 0002:0000e9ec       ??_C@_17HFOLPPLP@?$AAF?$AAr?$AAi?$AA?$AA@ 1002c9ec     LIBCMT:nlsdata2.obj
 0002:0000e9f4       ??_C@_17PDPHAADD@?$AAT?$AAh?$AAu?$AA?$AA@ 1002c9f4     LIBCMT:nlsdata2.obj
 0002:0000e9fc       ??_C@_17CJEDCEPE@?$AAW?$AAe?$AAd?$AA?$AA@ 1002c9fc     LIBCMT:nlsdata2.obj
 0002:0000ea04       ??_C@_17BMKGEGOJ@?$AAT?$AAu?$AAe?$AA?$AA@ 1002ca04     LIBCMT:nlsdata2.obj
 0002:0000ea0c       ??_C@_17KBOMKBF@?$AAM?$AAo?$AAn?$AA?$AA@ 1002ca0c     LIBCMT:nlsdata2.obj
 0002:0000ea14       ??_C@_17MBGCMIPB@?$AAS?$AAu?$AAn?$AA?$AA@ 1002ca14     LIBCMT:nlsdata2.obj
 0002:0000ea1c       ??_C@_08JCCMCCIL@HH?3mm?3ss?$AA@ 1002ca1c     LIBCMT:nlsdata2.obj
 0002:0000ea28       ??_C@_0BE@CKGJFCPC@dddd?0?5MMMM?5dd?0?5yyyy?$AA@ 1002ca28     LIBCMT:nlsdata2.obj
 0002:0000ea3c       ??_C@_08BPBNCDIB@MM?1dd?1yy?$AA@ 1002ca3c     LIBCMT:nlsdata2.obj
 0002:0000ea48       ??_C@_02CJNFDJBF@PM?$AA@   1002ca48     LIBCMT:nlsdata2.obj
 0002:0000ea4c       ??_C@_02DEDBPAFC@AM?$AA@   1002ca4c     LIBCMT:nlsdata2.obj
 0002:0000ea50       ??_C@_08EDHMEBNP@December?$AA@ 1002ca50     LIBCMT:nlsdata2.obj
 0002:0000ea5c       ??_C@_08HCHEGEOA@November?$AA@ 1002ca5c     LIBCMT:nlsdata2.obj
 0002:0000ea68       ??_C@_07JJNFCEND@October?$AA@ 1002ca68     LIBCMT:nlsdata2.obj
 0002:0000ea70       ??_C@_09BHHEALKD@September?$AA@ 1002ca70     LIBCMT:nlsdata2.obj
 0002:0000ea7c       ??_C@_06LBBHFDDG@August?$AA@ 1002ca7c     LIBCMT:nlsdata2.obj
 0002:0000ea84       ??_C@_04MIEPOIFP@July?$AA@ 1002ca84     LIBCMT:nlsdata2.obj
 0002:0000ea8c       ??_C@_04CNLMGBGM@June?$AA@ 1002ca8c     LIBCMT:nlsdata2.obj
 0002:0000ea94       ??_C@_05DMJDNLEJ@April?$AA@ 1002ca94     LIBCMT:nlsdata2.obj
 0002:0000ea9c       ??_C@_05HPCKOFNC@March?$AA@ 1002ca9c     LIBCMT:nlsdata2.obj
 0002:0000eaa4       ??_C@_08GNJGEPFN@February?$AA@ 1002caa4     LIBCMT:nlsdata2.obj
 0002:0000eab0       ??_C@_07CGJPFGJA@January?$AA@ 1002cab0     LIBCMT:nlsdata2.obj
 0002:0000eab8       ??_C@_03MKABNOCG@Dec?$AA@  1002cab8     LIBCMT:nlsdata2.obj
 0002:0000eabc       ??_C@_03JPJOFNIA@Nov?$AA@  1002cabc     LIBCMT:nlsdata2.obj
 0002:0000eac0       ??_C@_03BMAOKBAD@Oct?$AA@  1002cac0     LIBCMT:nlsdata2.obj
 0002:0000eac4       ??_C@_03GGCAPAJC@Sep?$AA@  1002cac4     LIBCMT:nlsdata2.obj
 0002:0000eac8       ??_C@_03IFJFEIGA@Aug?$AA@  1002cac8     LIBCMT:nlsdata2.obj
 0002:0000eacc       ??_C@_03LBGABGKK@Jul?$AA@  1002cacc     LIBCMT:nlsdata2.obj
 0002:0000ead0       ??_C@_03IDFGHECI@Jun?$AA@  1002cad0     LIBCMT:nlsdata2.obj
 0002:0000ead4       ??_C@_03CNMDKL@May?$AA@    1002cad4     LIBCMT:nlsdata2.obj
 0002:0000ead8       ??_C@_03LEOLGMJP@Apr?$AA@  1002cad8     LIBCMT:nlsdata2.obj
 0002:0000eadc       ??_C@_03ODNJBKGA@Mar?$AA@  1002cadc     LIBCMT:nlsdata2.obj
 0002:0000eae0       ??_C@_03HJBDCHOM@Feb?$AA@  1002cae0     LIBCMT:nlsdata2.obj
 0002:0000eae4       ??_C@_03JIHJHPIE@Jan?$AA@  1002cae4     LIBCMT:nlsdata2.obj
 0002:0000eae8       ??_C@_08INBOOONO@Saturday?$AA@ 1002cae8     LIBCMT:nlsdata2.obj
 0002:0000eaf4       ??_C@_06JECMNKMI@Friday?$AA@ 1002caf4     LIBCMT:nlsdata2.obj
 0002:0000eafc       ??_C@_08HACCIKIA@Thursday?$AA@ 1002cafc     LIBCMT:nlsdata2.obj
 0002:0000eb08       ??_C@_09DLIGFAKA@Wednesday?$AA@ 1002cb08     LIBCMT:nlsdata2.obj
 0002:0000eb14       ??_C@_07BAAGCFCM@Tuesday?$AA@ 1002cb14     LIBCMT:nlsdata2.obj
 0002:0000eb1c       ??_C@_06JLEDEDGH@Monday?$AA@ 1002cb1c     LIBCMT:nlsdata2.obj
 0002:0000eb24       ??_C@_06OOPIFAJ@Sunday?$AA@ 1002cb24     LIBCMT:nlsdata2.obj
 0002:0000eb2c       ??_C@_03FEFJNEK@Sat?$AA@   1002cb2c     LIBCMT:nlsdata2.obj
 0002:0000eb30       ??_C@_03IDIOELNC@Fri?$AA@  1002cb30     LIBCMT:nlsdata2.obj
 0002:0000eb34       ??_C@_03IOFIKPDN@Thu?$AA@  1002cb34     LIBCMT:nlsdata2.obj
 0002:0000eb38       ??_C@_03MHOMLAJA@Wed?$AA@  1002cb38     LIBCMT:nlsdata2.obj
 0002:0000eb3c       ??_C@_03NAGEINEP@Tue?$AA@  1002cb3c     LIBCMT:nlsdata2.obj
 0002:0000eb40       ??_C@_03PDAGKDH@Mon?$AA@   1002cb40     LIBCMT:nlsdata2.obj
 0002:0000eb44       ??_C@_03KOEHGMDN@Sun?$AA@  1002cb44     LIBCMT:nlsdata2.obj
 0002:0000ebc8       ??_C@_01NEMOKFLO@?$DN?$AA@ 1002cbc8     LIBCMT:setlocal.obj
 0002:0000ec38       ??_C@_03IIINPABG@tan?$AA@  1002cc38     LIBCMT:_libm_error_.obj
 0002:0000ec3c       ??_C@_03LALBNOCG@cos?$AA@  1002cc3c     LIBCMT:_libm_error_.obj
 0002:0000ec40       ??_C@_03BLEJJJBH@sin?$AA@  1002cc40     LIBCMT:_libm_error_.obj
 0002:0000ec44       ??_C@_04EHEDPDJG@modf?$AA@ 1002cc44     LIBCMT:_libm_error_.obj
 0002:0000ec4c       ??_C@_05PBJFFIGL@floor?$AA@ 1002cc4c     LIBCMT:_libm_error_.obj
 0002:0000ec54       ??_C@_04GFPJNGEK@ceil?$AA@ 1002cc54     LIBCMT:_libm_error_.obj
 0002:0000ec5c       ??_C@_04MLLJIGOK@atan?$AA@ 1002cc5c     LIBCMT:_libm_error_.obj
 0002:0000ec64       ??_C@_05EOHGHCHD@exp10?$AA@ 1002cc64     LIBCMT:_libm_error_.obj
 0002:0000ec6c       ??_C@_04PDIFKINK@acos?$AA@ 1002cc6c     LIBCMT:_libm_error_.obj
 0002:0000ec74       ??_C@_04FIHNOPOL@asin?$AA@ 1002cc74     LIBCMT:_libm_error_.obj
 0002:0000ec7c       ??_C@_03MGHMBJCF@log?$AA@  1002cc7c     LIBCMT:_libm_error_.obj
 0002:0000ec80       ??_C@_05HGHHAHAP@log10?$AA@ 1002cc80     LIBCMT:_libm_error_.obj
 0002:0000ec88       ??_C@_03KHJOGHMM@exp?$AA@  1002cc88     LIBCMT:_libm_error_.obj
 0002:0000ec8c       ??_C@_03JGHBODFD@pow?$AA@  1002cc8c     LIBCMT:_libm_error_.obj
 0002:000125d0       __infinity                 100305d0     LIBCMT:_87tran_.obj
 0002:000125da       __minfinity                100305da     LIBCMT:_87tran_.obj
 0002:000125e4       __logemax                  100305e4     LIBCMT:_87tran_.obj
 0002:0001260a       __OP_EXPjmptab             1003060a     LIBCMT:_87tran_.obj
 0002:00012638       __DEFAULT_CW_in_mem        10030638     LIBCMT:_common_.obj
 0002:0001263a       __pi_by_2_to_61            1003063a     LIBCMT:_common_.obj
 0002:00015680       ??_C@_0BK@CFCOFLF@?5Complete?5Object?5Locator?8?$AA@ 10033680     LIBCMT:undname.obj
 0002:0001569c       ??_C@_0BN@MECKDCOJ@?5Class?5Hierarchy?5Descriptor?8?$AA@ 1003369c     LIBCMT:undname.obj
 0002:000156bc       ??_C@_0BD@LGICGFMM@?5Base?5Class?5Array?8?$AA@ 100336bc     LIBCMT:undname.obj
 0002:000156d0       ??_C@_0BM@LDKODKLH@?5Base?5Class?5Descriptor?5at?5?$CI?$AA@ 100336d0     LIBCMT:undname.obj
 0002:000156ec       ??_C@_0BC@DAFEJGAK@?5Type?5Descriptor?8?$AA@ 100336ec     LIBCMT:undname.obj
 0002:00015700       ??_C@_0BM@PMGGMLDN@?$GAlocal?5static?5thread?5guard?8?$AA@ 10033700     LIBCMT:undname.obj
 0002:0001571c       ??_C@_0CL@FGIJHLCE@?$GAmanaged?5vector?5copy?5constructor@ 1003371c     LIBCMT:undname.obj
 0002:00015748       ??_C@_0CJ@GJELGAMM@?$GAvector?5vbase?5copy?5constructor?5i@ 10033748     LIBCMT:undname.obj
 0002:00015774       ??_C@_0CD@CGAJBKEJ@?$GAvector?5copy?5constructor?5iterato@ 10033774     LIBCMT:undname.obj
 0002:00015798       ??_C@_0CB@PDBIFEP@?$GAdynamic?5atexit?5destructor?5for?5?8@ 10033798     LIBCMT:undname.obj
 0002:000157bc       ??_C@_0BL@CLIPGLGB@?$GAdynamic?5initializer?5for?5?8?$AA@ 100337bc     LIBCMT:undname.obj
 0002:000157d8       ??_C@_0CM@FCBBDIGB@?$GAeh?5vector?5vbase?5copy?5constructo@ 100337d8     LIBCMT:undname.obj
 0002:00015804       ??_C@_0CG@HLDDJMAG@?$GAeh?5vector?5copy?5constructor?5iter@ 10033804     LIBCMT:undname.obj
 0002:0001582c       ??_C@_0CF@IMGKMJNO@?$GAmanaged?5vector?5destructor?5itera@ 1003382c     LIBCMT:undname.obj
 0002:00015854       ??_C@_0CG@CFDHKGGD@?$GAmanaged?5vector?5constructor?5iter@ 10033854     LIBCMT:undname.obj
 0002:0001587c       ??_C@_0BN@CKNJLHMB@?$GAplacement?5delete?$FL?$FN?5closure?8?$AA@ 1003387c     LIBCMT:undname.obj
 0002:0001589c       ??_C@_0BL@CNOONJFP@?$GAplacement?5delete?5closure?8?$AA@ 1003389c     LIBCMT:undname.obj
 0002:000158b8       ??_C@_0P@HJKNJFNN@?$GAomni?5callsig?8?$AA@ 100338b8     LIBCMT:undname.obj
 0002:000158c8       ??_C@_09LBNFPBCA@?5delete?$FL?$FN?$AA@ 100338c8     LIBCMT:undname.obj
 0002:000158d4       ??_C@_06FHBGPFGH@?5new?$FL?$FN?$AA@ 100338d4     LIBCMT:undname.obj
 0002:000158dc       ??_C@_0CE@IIHCMGGL@?$GAlocal?5vftable?5constructor?5closu@ 100338dc     LIBCMT:undname.obj
 0002:00015900       ??_C@_0BA@KKLDJDLB@?$GAlocal?5vftable?8?$AA@ 10033900     LIBCMT:undname.obj
 0002:00015910       ??_C@_05KHLCHHI@?$GARTTI?$AA@ 10033910     LIBCMT:undname.obj
 0002:00015918       ??_C@_03KLGMFNMG@?$GAEH?$AA@ 10033918     LIBCMT:undname.obj
 0002:0001591c       ??_C@_0BA@KBCDOMBN@?$GAudt?5returning?8?$AA@ 1003391c     LIBCMT:undname.obj
 0002:0001592c       ??_C@_0BL@LLKPOHJI@?$GAcopy?5constructor?5closure?8?$AA@ 1003392c     LIBCMT:undname.obj
 0002:00015948       ??_C@_0CH@OOJPLCPH@?$GAeh?5vector?5vbase?5constructor?5ite@ 10033948     LIBCMT:undname.obj
 0002:00015970       ??_C@_0CA@GCEOPDGL@?$GAeh?5vector?5destructor?5iterator?8?$AA@ 10033970     LIBCMT:undname.obj
 0002:00015990       ??_C@_0CB@JONCMFFK@?$GAeh?5vector?5constructor?5iterator?8@ 10033990     LIBCMT:undname.obj
 0002:000159b4       ??_C@_0BL@NILFHHPC@?$GAvirtual?5displacement?5map?8?$AA@ 100339b4     LIBCMT:undname.obj
 0002:000159d0       ??_C@_0CE@IKBNEHA@?$GAvector?5vbase?5constructor?5iterat@ 100339d0     LIBCMT:undname.obj
 0002:000159f4       ??_C@_0BN@LFPFMEDL@?$GAvector?5destructor?5iterator?8?$AA@ 100339f4     LIBCMT:undname.obj
 0002:00015a14       ??_C@_0BO@PFGOCPJJ@?$GAvector?5constructor?5iterator?8?$AA@ 10033a14     LIBCMT:undname.obj
 0002:00015a34       ??_C@_0BN@IMDCHIKM@?$GAscalar?5deleting?5destructor?8?$AA@ 10033a34     LIBCMT:undname.obj
 0002:00015a54       ??_C@_0BO@OBMKPJIG@?$GAdefault?5constructor?5closure?8?$AA@ 10033a54     LIBCMT:undname.obj
 0002:00015a74       ??_C@_0BN@DEGPLNFK@?$GAvector?5deleting?5destructor?8?$AA@ 10033a74     LIBCMT:undname.obj
 0002:00015a94       ??_C@_0BD@JDLKDPAB@?$GAvbase?5destructor?8?$AA@ 10033a94     LIBCMT:undname.obj
 0002:00015aa8       ??_C@_08OBABFOLI@?$GAstring?8?$AA@ 10033aa8     LIBCMT:undname.obj
 0002:00015ab4       ??_C@_0BF@KDPPACIK@?$GAlocal?5static?5guard?8?$AA@ 10033ab4     LIBCMT:undname.obj
 0002:00015acc       ??_C@_08LLFFHHDJ@?$GAtypeof?8?$AA@ 10033acc     LIBCMT:undname.obj
 0002:00015ad8       ??_C@_07FEEIOKP@?$GAvcall?8?$AA@ 10033ad8     LIBCMT:undname.obj
 0002:00015ae0       ??_C@_09BLBHBJP@?$GAvbtable?8?$AA@ 10033ae0     LIBCMT:undname.obj
 0002:00015aec       ??_C@_09IFPLHPGF@?$GAvftable?8?$AA@ 10033aec     LIBCMT:undname.obj
 0002:00015af8       ??_C@_02MHEGNOJ@?$FO?$DN?$AA@ 10033af8     LIBCMT:undname.obj
 0002:00015afc       ??_C@_02DHLNPPGH@?$HM?$DN?$AA@ 10033afc     LIBCMT:undname.obj
 0002:00015b00       ??_C@_02FGJGFEAB@?$CG?$DN?$AA@ 10033b00     LIBCMT:undname.obj
 0002:00015b04       ??_C@_03CDNPDDLA@?$DM?$DM?$DN?$AA@ 10033b04     LIBCMT:undname.obj
 0002:00015b08       ??_C@_03IKFCCPFF@?$DO?$DO?$DN?$AA@ 10033b08     LIBCMT:undname.obj
 0002:00015b0c       ??_C@_02FENAOKFI@?$CF?$DN?$AA@ 10033b0c     LIBCMT:undname.obj
 0002:00015b10       ??_C@_02FJEHGPIO@?1?$DN?$AA@ 10033b10     LIBCMT:undname.obj
 0002:00015b14       ??_C@_02FKMDLLOA@?9?$DN?$AA@ 10033b14     LIBCMT:undname.obj
 0002:00015b18       ??_C@_02FOEOMHFC@?$CL?$DN?$AA@ 10033b18     LIBCMT:undname.obj
 0002:00015b1c       ??_C@_02FPIMKNGF@?$CK?$DN?$AA@ 10033b1c     LIBCMT:undname.obj
 0002:00015b20       ??_C@_02NONPIBCD@?$HM?$HM?$AA@ 10033b20     LIBCMT:undname.obj
 0002:00015b24       ??_C@_02PPKAJPJL@?$CG?$CG?$AA@ 10033b24     LIBCMT:undname.obj
 0002:00015b28       ??_C@_01DNKMNLPK@?$HM?$AA@ 10033b28     LIBCMT:undname.obj
 0002:00015b2c       ??_C@_01JKBOJNNK@?$FO?$AA@ 10033b2c     LIBCMT:undname.obj
 0002:00015b30       ??_C@_01PJKLJHI@?$HO?$AA@  10033b30     LIBCMT:undname.obj
 0002:00015b34       ??_C@_02HCKGKOFO@?$CI?$CJ?$AA@ 10033b34     LIBCMT:undname.obj
 0002:00015b38       ??_C@_01IHBHIGKO@?0?$AA@   10033b38     LIBCMT:undname.obj
 0002:00015b3c       ??_C@_02EEKDKGMJ@?$DO?$DN?$AA@ 10033b3c     LIBCMT:undname.obj
 0002:00015b40       ??_C@_01PPODPGHN@?$DO?$AA@ 10033b40     LIBCMT:undname.obj
 0002:00015b44       ??_C@_02EHCHHCKH@?$DM?$DN?$AA@ 10033b44     LIBCMT:undname.obj
 0002:00015b48       ??_C@_01MNNFJEPP@?$DM?$AA@ 10033b48     LIBCMT:undname.obj
 0002:00015b4c       ??_C@_01FGNFDNOH@?$CF?$AA@ 10033b4c     LIBCMT:undname.obj
 0002:00015b50       ??_C@_01KMDKNFGN@?1?$AA@   10033b50     LIBCMT:undname.obj
 0002:00015b54       ??_C@_03MNHNFDLC@?9?$DO?$CK?$AA@ 10033b54     LIBCMT:undname.obj
 0002:00015b58       ??_C@_01HNPIGOCE@?$CG?$AA@ 10033b58     LIBCMT:undname.obj
 0002:00015b5c       ??_C@_01MIFGBAGJ@?$CL?$AA@ 10033b5c     LIBCMT:undname.obj
 0002:00015b60       ??_C@_02BAABKJLB@?9?9?$AA@ 10033b60     LIBCMT:undname.obj
 0002:00015b64       ??_C@_02ECNGHCIF@?$CL?$CL?$AA@ 10033b64     LIBCMT:undname.obj
 0002:00015b68       ??_C@_01NBENCBCI@?$CK?$AA@ 10033b68     LIBCMT:undname.obj
 0002:00015b6c       ??_C@_02HBOOOICD@?9?$DO?$AA@ 10033b6c     LIBCMT:undname.obj
 0002:00015b70       ??_C@_08LHJFAFGD@operator?$AA@ 10033b70     LIBCMT:undname.obj
 0002:00015b7c       ??_C@_02GPECMEKF@?$FL?$FN?$AA@ 10033b7c     LIBCMT:undname.obj
 0002:00015b80       ??_C@_02FDNJECIE@?$CB?$DN?$AA@ 10033b80     LIBCMT:undname.obj
 0002:00015b84       ??_C@_02EGOFBIJA@?$DN?$DN?$AA@ 10033b84     LIBCMT:undname.obj
 0002:00015b88       ??_C@_01DCLJPIOD@?$CB?$AA@ 10033b88     LIBCMT:undname.obj
 0002:00015b8c       ??_C@_02FODMEDOG@?$DM?$DM?$AA@ 10033b8c     LIBCMT:undname.obj
 0002:00015b90       ??_C@_02GPIOPFAK@?$DO?$DO?$AA@ 10033b90     LIBCMT:undname.obj
 0002:00015b94       ??_C@_07FPCDHGMM@?5delete?$AA@ 10033b94     LIBCMT:undname.obj
 0002:00015b9c       ??_C@_04NIHEBCM@?5new?$AA@ 10033b9c     LIBCMT:undname.obj
 0002:00015ba4       ??_C@_0M@GFIIJFMG@__unaligned?$AA@ 10033ba4     LIBCMT:undname.obj
 0002:00015bb0       ??_C@_0L@PILCLIHE@__restrict?$AA@ 10033bb0     LIBCMT:undname.obj
 0002:00015bbc       ??_C@_07JOMMBBKO@__ptr64?$AA@ 10033bbc     LIBCMT:undname.obj
 0002:00015bc4       ??_C@_06GHPCKEAG@__eabi?$AA@ 10033bc4     LIBCMT:undname.obj
 0002:00015bcc       ??_C@_09HIJEGCPM@__clrcall?$AA@ 10033bcc     LIBCMT:undname.obj
 0002:00015bd8       ??_C@_0L@JMKHOMEK@__fastcall?$AA@ 10033bd8     LIBCMT:undname.obj
 0002:00015be4       ??_C@_0L@NPHFGOKO@__thiscall?$AA@ 10033be4     LIBCMT:undname.obj
 0002:00015bf0       ??_C@_09IFJBGAPI@__stdcall?$AA@ 10033bf0     LIBCMT:undname.obj
 0002:00015bfc       ??_C@_08GHMPAG@__pascal?$AA@ 10033bfc     LIBCMT:undname.obj
 0002:00015c08       ??_C@_07KOLFKCDI@__cdecl?$AA@ 10033c08     LIBCMT:undname.obj
 0002:00015c10       ??_C@_08EHJDFFNH@__based?$CI?$AA@ 10033c10     LIBCMT:undname.obj
 0002:00015da4       ??_C@_0BI@DFKBFLJE@GetProcessWindowStation?$AA@ 10033da4     LIBCMT:crtmboxw.obj
 0002:00015dbc       ??_C@_0BK@DEKFELLI@GetUserObjectInformationW?$AA@ 10033dbc     LIBCMT:crtmboxw.obj
 0002:00015dd8       ??_C@_0BD@HHGDFDBJ@GetLastActivePopup?$AA@ 10033dd8     LIBCMT:crtmboxw.obj
 0002:00015dec       ??_C@_0BA@HNOPNCHB@GetActiveWindow?$AA@ 10033dec     LIBCMT:crtmboxw.obj
 0002:00015dfc       ??_C@_0M@DLDCCGNP@MessageBoxW?$AA@ 10033dfc     LIBCMT:crtmboxw.obj
 0002:00015e08       ??_C@_1BG@GOEBHBDC@?$AAU?$AAS?$AAE?$AAR?$AA3?$AA2?$AA?4?$AAD?$AAL?$AAL?$AA?$AA@ 10033e08     LIBCMT:crtmboxw.obj
 0002:00015e20       ___lookuptable_s           10033e20     LIBCMT:outputs.obj
 0002:00015e80       ___newctype                10033e80     LIBCMT:ctype.obj
 0002:00016180       __wctype                   10034180     LIBCMT:ctype.obj
 0002:00016388       ___newclmap                10034388     LIBCMT:ctype.obj
 0002:00016508       ___newcumap                10034508     LIBCMT:ctype.obj
 0002:00016690       ??_C@_0L@KDOEJCKC@_nextafter?$AA@ 10034690     LIBCMT:_fpexcept_.obj
 0002:0001669c       ??_C@_05JGDBENOH@_logb?$AA@ 1003469c     LIBCMT:_fpexcept_.obj
 0002:000166a4       ??_C@_03ONILCKOB@_yn?$AA@  100346a4     LIBCMT:_fpexcept_.obj
 0002:000166a8       ??_C@_03NAKIGLHK@_y1?$AA@  100346a8     LIBCMT:_fpexcept_.obj
 0002:000166ac       ??_C@_03MJLDFKDL@_y0?$AA@  100346ac     LIBCMT:_fpexcept_.obj
 0002:000166b0       ??_C@_05GKKHEGJL@frexp?$AA@ 100346b0     LIBCMT:_fpexcept_.obj
 0002:000166b8       ??_C@_04KEPJIHGP@fmod?$AA@ 100346b8     LIBCMT:_fpexcept_.obj
 0002:000166c0       ??_C@_06MEIMCGCF@_hypot?$AA@ 100346c0     LIBCMT:_fpexcept_.obj
 0002:000166c8       ??_C@_05KBKMEMPO@_cabs?$AA@ 100346c8     LIBCMT:_fpexcept_.obj
 0002:000166d0       ??_C@_05CEJMAHNP@ldexp?$AA@ 100346d0     LIBCMT:_fpexcept_.obj
 0002:000166d8       ??_C@_04ODHECPBC@fabs?$AA@ 100346d8     LIBCMT:_fpexcept_.obj
 0002:000166e0       ??_C@_04EIAKFFMI@sqrt?$AA@ 100346e0     LIBCMT:_fpexcept_.obj
 0002:000166e8       ??_C@_05KNGEOGJB@atan2?$AA@ 100346e8     LIBCMT:_fpexcept_.obj
 0002:000166f0       ??_C@_04FJHINJAO@tanh?$AA@ 100346f0     LIBCMT:_fpexcept_.obj
 0002:000166f8       ??_C@_04HPJJNFIM@cosh?$AA@ 100346f8     LIBCMT:_fpexcept_.obj
 0002:00016700       ??_C@_04COOMCNPB@sinh?$AA@ 10034700     LIBCMT:_fpexcept_.obj
 0002:00018f00       ??_C@_06IMKFLFPG@1?$CDQNAN?$AA@ 10036f00     LIBCMT:_x10fout_.obj
 0002:00018f08       ??_C@_05DNEBIAHO@1?$CDINF?$AA@ 10036f08     LIBCMT:_x10fout_.obj
 0002:00018f10       ??_C@_05PHHOCPM@1?$CDIND?$AA@ 10036f10     LIBCMT:_x10fout_.obj
 0002:00018f18       ??_C@_06PGGFOGJG@1?$CDSNAN?$AA@ 10036f18     LIBCMT:_x10fout_.obj
 0002:00018f20       ??_C@_1BA@BALFACEM@?$AAC?$AAO?$AAN?$AAO?$AAU?$AAT?$AA$?$AA?$AA@ 10036f20     LIBCMT:initcon.obj
 0002:00018f30       __load_config_used         10036f30     LIBCMT:loadcfg.obj
 0002:00019008       ??_R3CBaseVSShader@@8      10037008     blur.obj
 0002:00019018       ??_R2CBaseVSShader@@8      10037018     blur.obj
 0002:00019028       ??_R1A@?0A@EA@CBaseVSShader@@8 10037028     blur.obj
 0002:00019044       ??_R1A@?0A@EA@CBaseShader@@8 10037044     blur.obj
 0002:00019060       ??_R3CBaseShader@@8        10037060     blur.obj
 0002:00019070       ??_R2CBaseShader@@8        10037070     blur.obj
 0002:0001907c       ??_R1A@?0A@EA@IShader@@8   1003707c     blur.obj
 0002:00019098       ??_R3IShader@@8            10037098     blur.obj
 0002:000190a8       ??_R2IShader@@8            100370a8     blur.obj
 0002:000190b0       ??_R4CShader@GAUSSIAN_BLUR_6@@6B@ 100370b0     blur.obj
 0002:000190c4       ??_R3CShader@GAUSSIAN_BLUR_6@@8 100370c4     blur.obj
 0002:000190d4       ??_R2CShader@GAUSSIAN_BLUR_6@@8 100370d4     blur.obj
 0002:000190e8       ??_R1A@?0A@EA@CShader@GAUSSIAN_BLUR_6@@8 100370e8     blur.obj
 0002:00019104       ??_R4CShader@DEBUG_LIGHTING_CTRL@@6B@ 10037104     debug_lightingctrl.obj
 0002:00019118       ??_R3CShader@DEBUG_LIGHTING_CTRL@@8 10037118     debug_lightingctrl.obj
 0002:00019128       ??_R2CShader@DEBUG_LIGHTING_CTRL@@8 10037128     debug_lightingctrl.obj
 0002:0001913c       ??_R1A@?0A@EA@CShader@DEBUG_LIGHTING_CTRL@@8 1003713c     debug_lightingctrl.obj
 0002:00019158       ??_R4CShader@DEBUG_RADIOSITY_GRID@@6B@ 10037158     debug_radiosity_grid.obj
 0002:0001916c       ??_R3CShader@DEBUG_RADIOSITY_GRID@@8 1003716c     debug_radiosity_grid.obj
 0002:0001917c       ??_R2CShader@DEBUG_RADIOSITY_GRID@@8 1003717c     debug_radiosity_grid.obj
 0002:00019190       ??_R1A@?0A@EA@CShader@DEBUG_RADIOSITY_GRID@@8 10037190     debug_radiosity_grid.obj
 0002:000191ac       ??_R4CShader@DEBUG_SHADOW@@6B@ 100371ac     debug_shadow.obj
 0002:000191c0       ??_R3CShader@DEBUG_SHADOW@@8 100371c0     debug_shadow.obj
 0002:000191d0       ??_R2CShader@DEBUG_SHADOW@@8 100371d0     debug_shadow.obj
 0002:000191e4       ??_R1A@?0A@EA@CShader@DEBUG_SHADOW@@8 100371e4     debug_shadow.obj
 0002:00019200       ??_R4CShader@DEFERRED_BRUSH@@6B@ 10037200     deferred_brush.obj
 0002:00019214       ??_R3CShader@DEFERRED_BRUSH@@8 10037214     deferred_brush.obj
 0002:00019224       ??_R2CShader@DEFERRED_BRUSH@@8 10037224     deferred_brush.obj
 0002:00019238       ??_R1A@?0A@EA@CShader@DEFERRED_BRUSH@@8 10037238     deferred_brush.obj
 0002:00019254       ??_R4CBasePerMaterialContextData@@6B@ 10037254     deferred_brush.obj
 0002:00019268       ??_R3CBasePerMaterialContextData@@8 10037268     deferred_brush.obj
 0002:00019278       ??_R2CBasePerMaterialContextData@@8 10037278     deferred_brush.obj
 0002:00019280       ??_R1A@?0A@EA@CBasePerMaterialContextData@@8 10037280     deferred_brush.obj
 0002:0001929c       ??_R4CDeferredPerMaterialContextData@@6B@ 1003729c     deferred_brush.obj
 0002:000192b0       ??_R3CDeferredPerMaterialContextData@@8 100372b0     deferred_brush.obj
 0002:000192c0       ??_R2CDeferredPerMaterialContextData@@8 100372c0     deferred_brush.obj
 0002:000192cc       ??_R1A@?0A@EA@CDeferredPerMaterialContextData@@8 100372cc     deferred_brush.obj
 0002:000192e8       ??_R4CShader@DEFERRED_DECALMODULATE@@6B@ 100372e8     deferred_decalModulate.obj
 0002:000192fc       ??_R3CShader@DEFERRED_DECALMODULATE@@8 100372fc     deferred_decalModulate.obj
 0002:0001930c       ??_R2CShader@DEFERRED_DECALMODULATE@@8 1003730c     deferred_decalModulate.obj
 0002:00019320       ??_R1A@?0A@EA@CShader@DEFERRED_DECALMODULATE@@8 10037320     deferred_decalModulate.obj
 0002:0001933c       ??_R4CShader@DEFERRED_MODEL@@6B@ 1003733c     deferred_model.obj
 0002:00019350       ??_R3CShader@DEFERRED_MODEL@@8 10037350     deferred_model.obj
 0002:00019360       ??_R2CShader@DEFERRED_MODEL@@8 10037360     deferred_model.obj
 0002:00019374       ??_R1A@?0A@EA@CShader@DEFERRED_MODEL@@8 10037374     deferred_model.obj
 0002:00019390       ??_R4IBaseInterface@@6B@   10037390     IDeferredExt.obj
 0002:000193a4       ??_R3IBaseInterface@@8     100373a4     IDeferredExt.obj
 0002:000193b4       ??_R2IBaseInterface@@8     100373b4     IDeferredExt.obj
 0002:000193bc       ??_R1A@?0A@EA@IBaseInterface@@8 100373bc     IDeferredExt.obj
 0002:000193d8       ??_R3IDeferredExtension@@8 100373d8     IDeferredExt.obj
 0002:000193e8       ??_R2IDeferredExtension@@8 100373e8     IDeferredExt.obj
 0002:000193f4       ??_R1A@?0A@EA@IDeferredExtension@@8 100373f4     IDeferredExt.obj
 0002:00019410       ??_R4CDeferredExtension@@6B@ 10037410     IDeferredExt.obj
 0002:00019424       ??_R3CDeferredExtension@@8 10037424     IDeferredExt.obj
 0002:00019434       ??_R2CDeferredExtension@@8 10037434     IDeferredExt.obj
 0002:00019444       ??_R1A@?0A@EA@CDeferredExtension@@8 10037444     IDeferredExt.obj
 0002:00019460       ??_R4CShader@LIGHTING_GLOBAL@@6B@ 10037460     lighting_global.obj
 0002:00019474       ??_R3CShader@LIGHTING_GLOBAL@@8 10037474     lighting_global.obj
 0002:00019484       ??_R2CShader@LIGHTING_GLOBAL@@8 10037484     lighting_global.obj
 0002:00019498       ??_R1A@?0A@EA@CShader@LIGHTING_GLOBAL@@8 10037498     lighting_global.obj
 0002:000194b4       ??_R4CShader@LIGHTING_WORLD@@6B@ 100374b4     lighting_world.obj
 0002:000194c8       ??_R3CShader@LIGHTING_WORLD@@8 100374c8     lighting_world.obj
 0002:000194d8       ??_R2CShader@LIGHTING_WORLD@@8 100374d8     lighting_world.obj
 0002:000194ec       ??_R1A@?0A@EA@CShader@LIGHTING_WORLD@@8 100374ec     lighting_world.obj
 0002:00019508       ??_R4CShader@LIGHTING_VOLUME@@6B@ 10037508     lighting_volume.obj
 0002:0001951c       ??_R3CShader@LIGHTING_VOLUME@@8 1003751c     lighting_volume.obj
 0002:0001952c       ??_R2CShader@LIGHTING_VOLUME@@8 1003752c     lighting_volume.obj
 0002:00019540       ??_R1A@?0A@EA@CShader@LIGHTING_VOLUME@@8 10037540     lighting_volume.obj
 0002:0001955c       ??_R4CShader@RADIOSITY_BLEND@@6B@ 1003755c     radiosity_blend.obj
 0002:00019570       ??_R3CShader@RADIOSITY_BLEND@@8 10037570     radiosity_blend.obj
 0002:00019580       ??_R2CShader@RADIOSITY_BLEND@@8 10037580     radiosity_blend.obj
 0002:00019594       ??_R1A@?0A@EA@CShader@RADIOSITY_BLEND@@8 10037594     radiosity_blend.obj
 0002:000195b0       ??_R4CShader@RADIOSITY_GLOBAL@@6B@ 100375b0     radiosity_global.obj
 0002:000195c4       ??_R3CShader@RADIOSITY_GLOBAL@@8 100375c4     radiosity_global.obj
 0002:000195d4       ??_R2CShader@RADIOSITY_GLOBAL@@8 100375d4     radiosity_global.obj
 0002:000195e8       ??_R1A@?0A@EA@CShader@RADIOSITY_GLOBAL@@8 100375e8     radiosity_global.obj
 0002:00019604       ??_R4CShader@RADIOSITY_PROPAGATE@@6B@ 10037604     radiosity_propagate.obj
 0002:00019618       ??_R3CShader@RADIOSITY_PROPAGATE@@8 10037618     radiosity_propagate.obj
 0002:00019628       ??_R2CShader@RADIOSITY_PROPAGATE@@8 10037628     radiosity_propagate.obj
 0002:0001963c       ??_R1A@?0A@EA@CShader@RADIOSITY_PROPAGATE@@8 1003763c     radiosity_propagate.obj
 0002:00019658       ??_R4CShader@SCREENSPACE_COMBINE@@6B@ 10037658     screenspace_combine.obj
 0002:0001966c       ??_R3CShader@SCREENSPACE_COMBINE@@8 1003766c     screenspace_combine.obj
 0002:0001967c       ??_R2CShader@SCREENSPACE_COMBINE@@8 1003767c     screenspace_combine.obj
 0002:00019690       ??_R1A@?0A@EA@CShader@SCREENSPACE_COMBINE@@8 10037690     screenspace_combine.obj
 0002:000196ac       ??_R4CShader@SCREENSPACE_SHADING@@6B@ 100376ac     screenspace_shading.obj
 0002:000196c0       ??_R3CShader@SCREENSPACE_SHADING@@8 100376c0     screenspace_shading.obj
 0002:000196d0       ??_R2CShader@SCREENSPACE_SHADING@@8 100376d0     screenspace_shading.obj
 0002:000196e4       ??_R1A@?0A@EA@CShader@SCREENSPACE_SHADING@@8 100376e4     screenspace_shading.obj
 0002:00019700       ??_R4CShader@VOLUME_BLEND@@6B@ 10037700     volume_blend.obj
 0002:00019714       ??_R3CShader@VOLUME_BLEND@@8 10037714     volume_blend.obj
 0002:00019724       ??_R2CShader@VOLUME_BLEND@@8 10037724     volume_blend.obj
 0002:00019738       ??_R1A@?0A@EA@CShader@VOLUME_BLEND@@8 10037738     volume_blend.obj
 0002:00019754       ??_R4CShader@VOLUME_PREPASS@@6B@ 10037754     volume_prepass.obj
 0002:00019768       ??_R3CShader@VOLUME_PREPASS@@8 10037768     volume_prepass.obj
 0002:00019778       ??_R2CShader@VOLUME_PREPASS@@8 10037778     volume_prepass.obj
 0002:0001978c       ??_R1A@?0A@EA@CShader@VOLUME_PREPASS@@8 1003778c     volume_prepass.obj
 0002:000197a8       ??_R3IConCommandBaseAccessor@@8 100377a8     tier1:convar.obj
 0002:000197b8       ??_R2IConCommandBaseAccessor@@8 100377b8     tier1:convar.obj
 0002:000197c0       ??_R1A@?0A@EA@IConCommandBaseAccessor@@8 100377c0     tier1:convar.obj
 0002:000197dc       ??_R4ConCommandBase@@6B@   100377dc     tier1:convar.obj
 0002:000197f0       ??_R3ConCommandBase@@8     100377f0     tier1:convar.obj
 0002:00019800       ??_R2ConCommandBase@@8     10037800     tier1:convar.obj
 0002:00019808       ??_R1A@?0A@EA@ConCommandBase@@8 10037808     tier1:convar.obj
 0002:00019824       ??_R4IConVar@@6B@          10037824     tier1:convar.obj
 0002:00019838       ??_R3IConVar@@8            10037838     tier1:convar.obj
 0002:00019848       ??_R2IConVar@@8            10037848     tier1:convar.obj
 0002:00019850       ??_R1A@?0A@EA@IConVar@@8   10037850     tier1:convar.obj
 0002:0001986c       ??_R4CDefaultAccessor@@6B@ 1003786c     tier1:convar.obj
 0002:00019880       ??_R3CDefaultAccessor@@8   10037880     tier1:convar.obj
 0002:00019890       ??_R2CDefaultAccessor@@8   10037890     tier1:convar.obj
 0002:0001989c       ??_R1A@?0A@EA@CDefaultAccessor@@8 1003789c     tier1:convar.obj
 0002:000198b8       ??_R4ConVar@@6BConCommandBase@@@ 100378b8     tier1:convar.obj
 0002:000198cc       ??_R3ConVar@@8             100378cc     tier1:convar.obj
 0002:000198dc       ??_R2ConVar@@8             100378dc     tier1:convar.obj
 0002:000198ec       ??_R1A@?0A@EA@ConVar@@8    100378ec     tier1:convar.obj
 0002:00019908       ??_R1BI@?0A@EA@IConVar@@8  10037908     tier1:convar.obj
 0002:00019924       ??_R4ConVar@@6BIConVar@@@  10037924     tier1:convar.obj
 0002:00019938       ??_R4CEmptyConVar@@6BConCommandBase@@@ 10037938     tier1:convar.obj
 0002:0001994c       ??_R3CEmptyConVar@@8       1003794c     tier1:convar.obj
 0002:0001995c       ??_R2CEmptyConVar@@8       1003795c     tier1:convar.obj
 0002:00019970       ??_R1A@?0A@EA@CEmptyConVar@@8 10037970     tier1:convar.obj
 0002:0001998c       ??_R4CEmptyConVar@@6BIConVar@@@ 1003798c     tier1:convar.obj
 0002:000199a0       ??_R4CUtlCharConversion@@6B@ 100379a0     tier1:utlbuffer.obj
 0002:000199b4       ??_R3CUtlCharConversion@@8 100379b4     tier1:utlbuffer.obj
 0002:000199c4       ??_R2CUtlCharConversion@@8 100379c4     tier1:utlbuffer.obj
 0002:000199cc       ??_R1A@?0A@EA@CUtlCharConversion@@8 100379cc     tier1:utlbuffer.obj
 0002:000199e8       ??_R4CUtlNoEscConversion@@6B@ 100379e8     tier1:utlbuffer.obj
 0002:000199fc       ??_R3CUtlNoEscConversion@@8 100379fc     tier1:utlbuffer.obj
 0002:00019a0c       ??_R2CUtlNoEscConversion@@8 10037a0c     tier1:utlbuffer.obj
 0002:00019a18       ??_R1A@?0A@EA@CUtlNoEscConversion@@8 10037a18     tier1:utlbuffer.obj
 0002:00019a34       ??_R4CUtlCStringConversion@@6B@ 10037a34     tier1:utlbuffer.obj
 0002:00019a48       ??_R3CUtlCStringConversion@@8 10037a48     tier1:utlbuffer.obj
 0002:00019a58       ??_R2CUtlCStringConversion@@8 10037a58     tier1:utlbuffer.obj
 0002:00019a64       ??_R1A@?0A@EA@CUtlCStringConversion@@8 10037a64     tier1:utlbuffer.obj
 0002:00019a80       ??_R4CBasePerInstanceContextData@@6B@ 10037a80     shaderlib:BaseShader.obj
 0002:00019a94       ??_R3CBasePerInstanceContextData@@8 10037a94     shaderlib:BaseShader.obj
 0002:00019aa4       ??_R2CBasePerInstanceContextData@@8 10037aa4     shaderlib:BaseShader.obj
 0002:00019aac       ??_R1A@?0A@EA@CBasePerInstanceContextData@@8 10037aac     shaderlib:BaseShader.obj
 0002:00019ac8       ??_R4CPerInstanceContextData@@6B@ 10037ac8     shaderlib:BaseShader.obj
 0002:00019adc       ??_R3CPerInstanceContextData@@8 10037adc     shaderlib:BaseShader.obj
 0002:00019aec       ??_R2CPerInstanceContextData@@8 10037aec     shaderlib:BaseShader.obj
 0002:00019af8       ??_R1A@?0A@EA@CPerInstanceContextData@@8 10037af8     shaderlib:BaseShader.obj
 0002:00019b14       ??_R4CBaseShader@@6B@      10037b14     shaderlib:BaseShader.obj
 0002:00019b28       ??_R3IShaderDLLInternal@@8 10037b28     shaderlib:ShaderDLL.obj
 0002:00019b38       ??_R2IShaderDLLInternal@@8 10037b38     shaderlib:ShaderDLL.obj
 0002:00019b40       ??_R1A@?0A@EA@IShaderDLLInternal@@8 10037b40     shaderlib:ShaderDLL.obj
 0002:00019b5c       ??_R4IShaderDLL@@6B@       10037b5c     shaderlib:ShaderDLL.obj
 0002:00019b70       ??_R3IShaderDLL@@8         10037b70     shaderlib:ShaderDLL.obj
 0002:00019b80       ??_R2IShaderDLL@@8         10037b80     shaderlib:ShaderDLL.obj
 0002:00019b88       ??_R1A@?0A@EA@IShaderDLL@@8 10037b88     shaderlib:ShaderDLL.obj
 0002:00019ba4       ??_R4CShaderDLL@@6BIShaderDLLInternal@@@ 10037ba4     shaderlib:ShaderDLL.obj
 0002:00019bb8       ??_R3CShaderDLL@@8         10037bb8     shaderlib:ShaderDLL.obj
 0002:00019bc8       ??_R2CShaderDLL@@8         10037bc8     shaderlib:ShaderDLL.obj
 0002:00019bd8       ??_R1A@?0A@EA@CShaderDLL@@8 10037bd8     shaderlib:ShaderDLL.obj
 0002:00019bf4       ??_R13?0A@EA@IShaderDLL@@8 10037bf4     shaderlib:ShaderDLL.obj
 0002:00019c10       ??_R4CShaderDLL@@6BIShaderDLL@@@ 10037c10     shaderlib:ShaderDLL.obj
 0002:00019c24       ??_R4CShaderLibConVarAccessor@@6B@ 10037c24     shaderlib:shaderlib_cvar.obj
 0002:00019c38       ??_R3CShaderLibConVarAccessor@@8 10037c38     shaderlib:shaderlib_cvar.obj
 0002:00019c48       ??_R2CShaderLibConVarAccessor@@8 10037c48     shaderlib:shaderlib_cvar.obj
 0002:00019c54       ??_R1A@?0A@EA@CShaderLibConVarAccessor@@8 10037c54     shaderlib:shaderlib_cvar.obj
 0002:00019c70       ??_R4type_info@@6B@        10037c70     LIBCMT:typinfo.obj
 0002:00019c84       ??_R3type_info@@8          10037c84     LIBCMT:typinfo.obj
 0002:00019c94       ??_R2type_info@@8          10037c94     LIBCMT:typinfo.obj
 0002:00019c9c       ??_R1A@?0A@EA@type_info@@8 10037c9c     LIBCMT:typinfo.obj
 0002:00019cb8       ??_R4bad_alloc@std@@6B@    10037cb8     LIBCMT:new.obj
 0002:00019ccc       ??_R3bad_alloc@std@@8      10037ccc     LIBCMT:new.obj
 0002:00019cdc       ??_R2bad_alloc@std@@8      10037cdc     LIBCMT:new.obj
 0002:00019ce8       ??_R1A@?0A@EA@bad_alloc@std@@8 10037ce8     LIBCMT:new.obj
 0002:00019d04       ??_R1A@?0A@EA@exception@std@@8 10037d04     LIBCMT:new.obj
 0002:00019d20       ??_R3exception@std@@8      10037d20     LIBCMT:new.obj
 0002:00019d30       ??_R2exception@std@@8      10037d30     LIBCMT:new.obj
 0002:00019d38       ??_R4exception@std@@6B@    10037d38     LIBCMT:stdexcpt.obj
 0002:00019d50       ___safe_se_handler_table   10037d50     <linker-defined>
 0002:00019d5c       ___rtc_iaa                 10037d5c     LIBCMT:_initsect_.obj
 0002:00019d60       ___rtc_izz                 10037d60     LIBCMT:_initsect_.obj
 0002:00019d64       ___rtc_taa                 10037d64     LIBCMT:_initsect_.obj
 0002:00019d68       ___rtc_tzz                 10037d68     LIBCMT:_initsect_.obj
 0002:00019dac       __TI2?AVbad_alloc@std@@    10037dac     LIBCMT:new.obj
 0002:00019dbc       __CTA2?AVbad_alloc@std@@   10037dbc     LIBCMT:new.obj
 0002:00019dc8       __CT??_R0?AVbad_alloc@std@@@8??0bad_alloc@std@@QAE@ABV01@@Z12 10037dc8     LIBCMT:new.obj
 0002:00019de4       __CT??_R0?AVexception@std@@@8??0exception@std@@QAE@ABV01@@Z12 10037de4     LIBCMT:new.obj
 0002:0001a0f4       __IMPORT_DESCRIPTOR_KERNEL32 100380f4     kernel32:KERNEL32.dll
 0002:0001a108       __IMPORT_DESCRIPTOR_tier0  10038108     tier0:tier0.dll
 0002:0001a11c       __NULL_IMPORT_DESCRIPTOR   1003811c     kernel32:KERNEL32.dll
 0003:00000040       ??_R0?AVCBaseVSShader@@@8  10039040     blur.obj
 0003:0000005c       ??_R0?AVCBaseShader@@@8    1003905c     blur.obj
 0003:00000078       ??_R0?AVIShader@@@8        10039078     blur.obj
 0003:00000090       ??_R0?AVCShader@GAUSSIAN_BLUR_6@@@8 10039090     blur.obj
 0003:000000dc       ??_R0?AVCShader@DEBUG_LIGHTING_CTRL@@@8 100390dc     debug_lightingctrl.obj
 0003:0000012c       ??_R0?AVCShader@DEBUG_RADIOSITY_GRID@@@8 1003912c     debug_radiosity_grid.obj
 0003:0000017c       ??_R0?AVCShader@DEBUG_SHADOW@@@8 1003917c     debug_shadow.obj
 0003:000001c4       ??_R0?AVCShader@DEFERRED_BRUSH@@@8 100391c4     deferred_brush.obj
 0003:000001ec       ??_R0?AVCBasePerMaterialContextData@@@8 100391ec     deferred_brush.obj
 0003:00000218       ??_R0?AVCDeferredPerMaterialContextData@@@8 10039218     deferred_brush.obj
 0003:0000026c       ??_R0?AVCShader@DEFERRED_DECALMODULATE@@@8 1003926c     deferred_decalModulate.obj
 0003:000002c0       ??_R0?AVCShader@DEFERRED_MODEL@@@8 100392c0     deferred_model.obj
 0003:000009c0       ??_R0?AVIBaseInterface@@@8 100399c0     IDeferredExt.obj
 0003:000009e0       ??_R0?AVIDeferredExtension@@@8 100399e0     IDeferredExt.obj
 0003:00000a04       ??_R0?AVCDeferredExtension@@@8 10039a04     IDeferredExt.obj
 0003:00000a4c       ??_R0?AVCShader@LIGHTING_GLOBAL@@@8 10039a4c     lighting_global.obj
 0003:00000ad0       ??_R0?AVCShader@LIGHTING_WORLD@@@8 10039ad0     lighting_world.obj
 0003:00000b1c       ??_R0?AVCShader@LIGHTING_VOLUME@@@8 10039b1c     lighting_volume.obj
 0003:00000b68       ??_R0?AVCShader@RADIOSITY_BLEND@@@8 10039b68     radiosity_blend.obj
 0003:00000bb4       ??_R0?AVCShader@RADIOSITY_GLOBAL@@@8 10039bb4     radiosity_global.obj
 0003:00000c00       ??_R0?AVCShader@RADIOSITY_PROPAGATE@@@8 10039c00     radiosity_propagate.obj
 0003:00000c50       ??_R0?AVCShader@SCREENSPACE_COMBINE@@@8 10039c50     screenspace_combine.obj
 0003:00000ca0       ??_R0?AVCShader@SCREENSPACE_SHADING@@@8 10039ca0     screenspace_shading.obj
 0003:00000cf0       ??_R0?AVCShader@VOLUME_BLEND@@@8 10039cf0     volume_blend.obj
 0003:00000d38       ??_R0?AVCShader@VOLUME_PREPASS@@@8 10039d38     volume_prepass.obj
 0003:00000e38       ??_R0?AVIConCommandBaseAccessor@@@8 10039e38     tier1:convar.obj
 0003:00000e60       ??_R0?AVConCommandBase@@@8 10039e60     tier1:convar.obj
 0003:00000e84       ??_R0?AVIConVar@@@8        10039e84     tier1:convar.obj
 0003:00000e9c       ??_R0?AVConVar@@@8         10039e9c     tier1:convar.obj
 0003:00000eb4       ??_R0?AVCDefaultAccessor@@@8 10039eb4     tier1:convar.obj
 0003:00000ed8       ??_R0?AVCEmptyConVar@@@8   10039ed8     tier1:convar.obj
 0003:00000f98       ??_R0?AVCUtlCharConversion@@@8 10039f98     tier1:utlbuffer.obj
 0003:00000fbc       ??_R0?AVCUtlNoEscConversion@@@8 10039fbc     tier1:utlbuffer.obj
 0003:00000fe0       ??_R0?AVCUtlCStringConversion@@@8 10039fe0     tier1:utlbuffer.obj
 0003:00001280       ?power2_n@@3PAMA           1003a280     mathlib:color_conversion.obj
 0003:000016a8       ?pfVectorNormalizeFast@@3P6IXAAVVector@@@ZA 1003a6a8     mathlib:mathlib_base.obj
 0003:000016b4       ?quat_identity@@3VQuaternion@@B 1003a6b4     mathlib:mathlib_base.obj
 0003:000016c4       ?vec3_invalid@@3VVector@@B 1003a6c4     mathlib:mathlib_base.obj
 0003:00001a14       ??_R0?AVCBasePerInstanceContextData@@@8 1003aa14     shaderlib:BaseShader.obj
 0003:00001a40       ??_R0?AVCPerInstanceContextData@@@8 1003aa40     shaderlib:BaseShader.obj
 0003:00001a84       ??_R0?AVIShaderDLLInternal@@@8 1003aa84     shaderlib:ShaderDLL.obj
 0003:00001aa8       ??_R0?AVIShaderDLL@@@8     1003aaa8     shaderlib:ShaderDLL.obj
 0003:00001ac4       ??_R0?AVCShaderDLL@@@8     1003aac4     shaderlib:ShaderDLL.obj
 0003:00001aec       ?g_ConVarAccessor@@3VCShaderLibConVarAccessor@@A 1003aaec     shaderlib:shaderlib_cvar.obj
 0003:00001af0       ??_R0?AVCShaderLibConVarAccessor@@@8 1003aaf0     shaderlib:shaderlib_cvar.obj
 0003:00001b18       __fltused                  1003ab18     LIBCMT:_fpinit_.obj
 0003:00001b1c       __ldused                   1003ab1c     LIBCMT:_fpinit_.obj
 0003:00001b20       ??_R0?AVtype_info@@@8      1003ab20     LIBCMT:typinfo.obj
 0003:00001b38       ??_R0?AVbad_alloc@std@@@8  1003ab38     LIBCMT:new.obj
 0003:00001b54       ??_R0?AVexception@std@@@8  1003ab54     LIBCMT:new.obj
 0003:00001b70       __half                     1003ab70     LIBCMT:_pow_.obj
 0003:00001b98       __cfltcvt_tab              1003ab98     LIBCMT:cmiscdat.obj
 0003:00001bc0       ___abort_behavior          1003abc0     LIBCMT:abort.obj
 0003:00001bc8       __iob                      1003abc8     LIBCMT:_file.obj
 0003:00001e48       ___nullstring              1003ae48     LIBCMT:output.obj
 0003:00001e4c       ___wnullstring             1003ae4c     LIBCMT:output.obj
 0003:00001fc0       ___security_cookie         1003afc0     LIBCMT:gs_cookie.obj
 0003:00001fc4       ___security_cookie_complement 1003afc4     LIBCMT:gs_cookie.obj
 0003:00001fc8       ___flsindex                1003afc8     LIBCMT:tidtable.obj
 0003:00001fcc       ___getvalueindex           1003afcc     LIBCMT:tidtable.obj
 0003:00001fd0       ___badioinfo               1003afd0     LIBCMT:ioinit.obj
 0003:00002010       ___initialmbcinfo          1003b010     LIBCMT:mbctype.obj
 0003:00002230       __mbctype                  1003b230     LIBCMT:mbctype.obj
 0003:00002338       __mbcasemap                1003b338     LIBCMT:mbctype.obj
 0003:00002438       ___ptmbcinfo               1003b438     LIBCMT:mbctype.obj
 0003:00002530       ___globallocalestatus      1003b530     LIBCMT:glstatus.obj
 0003:00002534       ___clocalestr              1003b534     LIBCMT:nlsdata2.obj
 0003:00002538       ___lc_time_c               1003b538     LIBCMT:nlsdata2.obj
 0003:000026a0       ___initiallocinfo          1003b6a0     LIBCMT:nlsdata2.obj
 0003:00002778       ___ptlocinfo               1003b778     LIBCMT:nlsdata2.obj
 0003:000028a0       __HUGE                     1003b8a0     LIBCMT:_huge_.obj
 0003:000028e0       ___lconv_static_decimal    1003b8e0     LIBCMT:lconv.obj
 0003:000028e4       ___lconv_static_W_decimal  1003b8e4     LIBCMT:lconv.obj
 0003:000028e8       ___lconv_c                 1003b8e8     LIBCMT:lconv.obj
 0003:00002938       ___lconv                   1003b938     LIBCMT:lconv.obj
 0003:0000293c       __pctype                   1003b93c     LIBCMT:ctype.obj
 0003:00002940       __pwctype                  1003b940     LIBCMT:ctype.obj
 0003:00002978       __pow10pos                 1003b978     LIBCMT:_constpow_.obj
 0003:00002ad8       __pow10neg                 1003bad8     LIBCMT:_constpow_.obj
 0003:00002c34       ___mb_cur_max              1003bc34     LIBCMT:nlsdata1.obj
 0003:00002c38       ___decimal_point           1003bc38     LIBCMT:nlsdata1.obj
 0003:00002c3c       ___decimal_point_length    1003bc3c     LIBCMT:nlsdata1.obj
 0003:00002c40       __matherr_flag             1003bc40     LIBCMT:_matherr_.obj
 0003:00002d30       __d_inf                    1003bd30     LIBCMT:_util_.obj
 0003:00002d38       __d_ind                    1003bd38     LIBCMT:_util_.obj
 0003:00002d40       __d_max                    1003bd40     LIBCMT:_util_.obj
 0003:00002d48       __d_min                    1003bd48     LIBCMT:_util_.obj
 0003:00002d50       __d_mzero                  1003bd50     LIBCMT:_util_.obj
 0003:00002d80       __NLG_Destination          1003bd80     LIBCMT:exsup.obj
 0003:00002d90       __lookuptrailbytes         1003bd90     LIBCMT:read.obj
 0003:00002e90       __confh                    1003be90     LIBCMT:initcon.obj
 0003:000037d0       ?deferred_radiosity_multiplier@@3VConVar@@A 1003c7d0     deferred_utility.obj
 0003:00003850       ?building_cubemaps@@3VConVar@@A 1003c850     defpass_composite.obj
 0003:00003908       ?__g_defExt@@3VCDeferredExtension@@A 1003c908     IDeferredExt.obj
 0003:00004270       ?s_pConCommandBases@ConCommandBase@@1PAV1@A 1003d270     tier1:convar.obj
 0003:00004274       ?s_pAccessor@ConCommandBase@@1PAVIConCommandBaseAccessor@@A 1003d274     tier1:convar.obj
 0003:00004298       ?s_pInterfaceRegs@@3PAVInterfaceReg@@A 1003d298     tier1:interface.obj
 0003:000042b8       ?s_StringCharConversion@@3VCUtlCStringConversion@@A 1003d2b8     tier1:utlbuffer.obj
 0003:00004cd0       ?s_NoEscConversion@@3VCUtlNoEscConversion@@A 1003dcd0     tier1:utlbuffer.obj
 0003:00005798       ?cvar@@3PAVICvar@@A        1003e798     interfaces:interfaces.obj
 0003:0000579c       ?g_pCVar@@3PAVICvar@@A     1003e79c     interfaces:interfaces.obj
 0003:000057a0       ?g_pProcessUtils@@3PAVIProcessUtils@@A 1003e7a0     interfaces:interfaces.obj
 0003:000057a8       ?g_pPhysics2@@3PAVIPhysics2@@A 1003e7a8     interfaces:interfaces.obj
 0003:000057ac       ?g_pPhysics2ActorManager@@3PAVIPhysics2ActorManager@@A 1003e7ac     interfaces:interfaces.obj
 0003:000057b0       ?g_pPhysics2ResourceManager@@3PAVIPhysics2ResourceManager@@A 1003e7b0     interfaces:interfaces.obj
 0003:000057b4       ?g_pEventSystem@@3PAVIEventSystem@@A 1003e7b4     interfaces:interfaces.obj
 0003:000057b8       ?g_pLocalize@@3PAVILocalize@@A 1003e7b8     interfaces:interfaces.obj
 0003:000057bc       ?g_pResourceSystem@@3PAVIResourceSystem@@A 1003e7bc     interfaces:interfaces.obj
 0003:000057c0       ?g_pRenderDeviceMgr@@3PAVIRenderDeviceMgr@@A 1003e7c0     interfaces:interfaces.obj
 0003:000057c4       ?g_pFullFileSystem@@3PAVIFileSystem@@A 1003e7c4     interfaces:interfaces.obj
 0003:000057c8       ?g_pAsyncFileSystem@@3PAVIAsyncFileSystem@@A 1003e7c8     interfaces:interfaces.obj
 0003:000057cc       ?materials@@3PAVIMaterialSystem@@A 1003e7cc     interfaces:interfaces.obj
 0003:000057d0       ?g_pMaterialSystem@@3PAVIMaterialSystem@@A 1003e7d0     interfaces:interfaces.obj
 0003:000057d4       ?g_pMaterialSystem2@@3PAVIMaterialSystem2@@A 1003e7d4     interfaces:interfaces.obj
 0003:000057d8       ?g_pInputSystem@@3PAVIInputSystem@@A 1003e7d8     interfaces:interfaces.obj
 0003:000057dc       ?g_pInputStackSystem@@3PAVIInputStackSystem@@A 1003e7dc     interfaces:interfaces.obj
 0003:000057e0       ?g_pNetworkSystem@@3PAVINetworkSystem@@A 1003e7e0     interfaces:interfaces.obj
 0003:000057e4       ?g_pSoundSystem@@3PAVISoundSystem@@A 1003e7e4     interfaces:interfaces.obj
 0003:000057e8       ?g_pMaterialSystemHardwareConfig@@3PAVIMaterialSystemHardwareConfig@@A 1003e7e8     interfaces:interfaces.obj
 0003:000057ec       ?g_pMaterialSystemDebugTextureInfo@@3PAVIDebugTextureInfo@@A 1003e7ec     interfaces:interfaces.obj
 0003:000057f0       ?g_VBAllocTracker@@3PAVIVBAllocTracker@@A 1003e7f0     interfaces:interfaces.obj
 0003:000057f4       ?colorcorrection@@3PAVIColorCorrectionSystem@@A 1003e7f4     interfaces:interfaces.obj
 0003:000057f8       ?p4@@3PAVIP4@@A            1003e7f8     interfaces:interfaces.obj
 0003:000057fc       ?mdllib@@3PAVIMdlLib@@A    1003e7fc     interfaces:interfaces.obj
 0003:00005800       ?g_pQueuedLoader@@3PAVIQueuedLoader@@A 1003e800     interfaces:interfaces.obj
 0003:00005804       ?g_pResourceAccessControl@@3PAVIResourceAccessControl@@A 1003e804     interfaces:interfaces.obj
 0003:00005808       ?g_pPrecacheSystem@@3PAVIPrecacheSystem@@A 1003e808     interfaces:interfaces.obj
 0003:0000580c       ?g_pSceneSystem@@3PAVISceneSystem@@A 1003e80c     interfaces:interfaces.obj
 0003:00005810       ?g_pMatchFramework@@3PAVIMatchFramework@@A 1003e810     interfaces:interfaces.obj
 0003:00005814       ?g_pGameUISystemMgr@@3PAVIGameUISystemMgr@@A 1003e814     interfaces:interfaces.obj
 0003:00005818       ?g_pRenderDevice@@3PAVIRenderDevice@@A 1003e818     interfaces:interfaces.obj
 0003:0000581c       ?g_pRenderHardwareConfig@@3PAVIRenderHardwareConfig@@A 1003e81c     interfaces:interfaces.obj
 0003:00005820       ?g_pMeshSystem@@3PAVIMeshSystem@@A 1003e820     interfaces:interfaces.obj
 0003:00005824       ?g_pStudioRender@@3PAVIStudioRender@@A 1003e824     interfaces:interfaces.obj
 0003:00005828       ?studiorender@@3PAVIStudioRender@@A 1003e828     interfaces:interfaces.obj
 0003:0000582c       ?g_pMatSystemSurface@@3PAVIMatSystemSurface@@A 1003e82c     interfaces:interfaces.obj
 0003:00005830       ?g_pVGuiInput@@3PAVIInput@vgui@@A 1003e830     interfaces:interfaces.obj
 0003:00005834       ?g_pVGuiSurface@@3PAVISurface@vgui@@A 1003e834     interfaces:interfaces.obj
 0003:00005838       ?g_pVGuiPanel@@3PAVIPanel@vgui@@A 1003e838     interfaces:interfaces.obj
 0003:0000583c       ?g_pVGui@@3PAVIVGui@vgui@@A 1003e83c     interfaces:interfaces.obj
 0003:00005840       ?g_pVGuiLocalize@@3PAVILocalize@vgui@@A 1003e840     interfaces:interfaces.obj
 0003:00005844       ?g_pVGuiSchemeManager@@3PAVISchemeManager@vgui@@A 1003e844     interfaces:interfaces.obj
 0003:00005848       ?g_pVGuiSystem@@3PAVISystem@vgui@@A 1003e848     interfaces:interfaces.obj
 0003:0000584c       ?g_pDataCache@@3PAVIDataCache@@A 1003e84c     interfaces:interfaces.obj
 0003:00005850       ?g_pMDLCache@@3PAVIMDLCache@@A 1003e850     interfaces:interfaces.obj
 0003:00005854       ?mdlcache@@3PAVIMDLCache@@A 1003e854     interfaces:interfaces.obj
 0003:00005858       ?g_pAVI@@3PAVIAvi@@A       1003e858     interfaces:interfaces.obj
 0003:0000585c       ?g_pBIK@@3PAVIBik@@A       1003e85c     interfaces:interfaces.obj
 0003:00005860       ?g_pDmeMakefileUtils@@3PAVIDmeMakefileUtils@@A 1003e860     interfaces:interfaces.obj
 0003:00005864       ?g_pPhysicsCollision@@3PAVIPhysicsCollision@@A 1003e864     interfaces:interfaces.obj
 0003:00005868       ?g_pSoundEmitterSystem@@3PAVISoundEmitterSystemBase@@A 1003e868     interfaces:interfaces.obj
 0003:0000586c       ?g_pWorldRendererMgr@@3PAVIWorldRendererMgr@@A 1003e86c     interfaces:interfaces.obj
 0003:00005870       ?g_pVGuiRenderSurface@@3PAVIVGuiRenderSurface@@A 1003e870     interfaces:interfaces.obj
 0003:00005c80       ?lineartolightmap@@3PAEA   1003ec80     mathlib:color_conversion.obj
 0003:00009480       ?lineartovertex@@3PAMA     10042480     mathlib:color_conversion.obj
 0003:0000d5a8       ?SinCosTable@@3PAMA        100465a8     mathlib:mathlib_base.obj
 0003:0000d9a8       ?s_bMathlibInitialized@@3_NA 100469a8     mathlib:mathlib_base.obj
 0003:0000d9b4       ?vec3_origin@@3VVector@@B  100469b4     mathlib:mathlib_base.obj
 0003:0000d9c0       ?vec3_angle@@3VQAngle@@B   100469c0     mathlib:mathlib_base.obj
 0003:00014a70       ?s_pShaderShadow@CBaseShader@@1PAVIShaderShadow@@A 1004da70     shaderlib:BaseShader.obj
 0003:00014a74       ?s_ppParams@CBaseShader@@1PAPAVIMaterialVar@@A 1004da74     shaderlib:BaseShader.obj
 0003:00014a78       ?s_pShaderAPI@CBaseShader@@1PAVIShaderDynamicAPI@@A 1004da78     shaderlib:BaseShader.obj
 0003:00014a7c       ?s_nModulationFlags@CBaseShader@@0HA 1004da7c     shaderlib:BaseShader.obj
 0003:00014a80       ?s_pShaderInit@CBaseShader@@1PAVIShaderInit@@A 1004da80     shaderlib:BaseShader.obj
 0003:00014a84       ?s_pTextureGroupName@CBaseShader@@1PBDB 1004da84     shaderlib:BaseShader.obj
 0003:00014a88       ?s_nPassCount@CBaseShader@@0HA 1004da88     shaderlib:BaseShader.obj
 0003:00014a8c       ?s_pInstanceDataPtr@CBaseShader@@0PAPAVCPerInstanceContextData@@A 1004da8c     shaderlib:BaseShader.obj
 0003:00014a91       ?g_shaderConfigDumpEnable@@3_NA 1004da91     shaderlib:BaseShader.obj
 0003:00014b08       ?g_pHardwareConfig@@3PAVIMaterialSystemHardwareConfig@@A 1004db08     shaderlib:ShaderDLL.obj
 0003:00014b0c       ?g_pConfig@@3PBUMaterialSystem_Config_t@@B 1004db0c     shaderlib:ShaderDLL.obj
 0003:00014b10       ?g_pSLShaderSystem@@3PAVIShaderSystem@@A 1004db10     shaderlib:ShaderDLL.obj
 0003:00014b4c       ___fastflag                1004db4c     LIBCMT:_fpinit_.obj
 0003:00014b68       __aenvptr                  1004db68     LIBCMT:dllcrt0.obj
 0003:00014b6c       __wenvptr                  1004db6c     LIBCMT:dllcrt0.obj
 0003:00014b70       ___error_mode              1004db70     LIBCMT:dllcrt0.obj
 0003:00014b74       ___app_type                1004db74     LIBCMT:dllcrt0.obj
 0003:00014b78       __maxwait                  1004db78     LIBCMT:crtheap.obj
 0003:00014b7c       __umaskval                 1004db7c     LIBCMT:crt0dat.obj
 0003:00014b80       ___argc                    1004db80     LIBCMT:crt0dat.obj
 0003:00014b84       ___argv                    1004db84     LIBCMT:crt0dat.obj
 0003:00014b88       ___wargv                   1004db88     LIBCMT:crt0dat.obj
 0003:00014b8c       __environ                  1004db8c     LIBCMT:crt0dat.obj
 0003:00014b90       ___initenv                 1004db90     LIBCMT:crt0dat.obj
 0003:00014b94       __wenviron                 1004db94     LIBCMT:crt0dat.obj
 0003:00014b98       ___winitenv                1004db98     LIBCMT:crt0dat.obj
 0003:00014b9c       __pgmptr                   1004db9c     LIBCMT:crt0dat.obj
 0003:00014ba0       __wpgmptr                  1004dba0     LIBCMT:crt0dat.obj
 0003:00014ba4       __exitflag                 1004dba4     LIBCMT:crt0dat.obj
 0003:00014ba8       __C_Termination_Done       1004dba8     LIBCMT:crt0dat.obj
 0003:00014bac       __C_Exit_Done              1004dbac     LIBCMT:crt0dat.obj
 0003:000151e0       ___pPurecall               1004e1e0     LIBCMT:inithelp.obj
 0003:000151e4       __cflush                   1004e1e4     LIBCMT:_file.obj
 0003:000151e8       __stdbuf                   1004e1e8     LIBCMT:_sftbuf.obj
 0003:000151f0       ___pInvalidArgHandler      1004e1f0     LIBCMT:invarg.obj
 0003:000151f4       ?_pnhHeap@@3P6AHI@ZA       1004e1f4     LIBCMT:handler.obj
 0003:000151f8       _gpFlsAlloc                1004e1f8     LIBCMT:tidtable.obj
 0003:000151fc       _gpFlsGetValue             1004e1fc     LIBCMT:tidtable.obj
 0003:00015200       _gpFlsSetValue             1004e200     LIBCMT:tidtable.obj
 0003:00015204       _gpFlsFree                 1004e204     LIBCMT:tidtable.obj
 0003:00015310       __crtheap                  1004e310     LIBCMT:heapinit.obj
 0003:00015318       ___mbulinfo                1004e318     LIBCMT:mbctype.obj
 0003:00015324       ___mbcodepage              1004e324     LIBCMT:mbctype.obj
 0003:00015328       ___ismbcodepage            1004e328     LIBCMT:mbctype.obj
 0003:0001532c       ___mblcid                  1004e32c     LIBCMT:mbctype.obj
 0003:00015330       ___locale_changed          1004e330     LIBCMT:setlocal.obj
 0003:0001548c       __outputformat             1004e48c     LIBCMT:outputformat.obj
 0003:00015490       ?__pInconsistency@@3P6AXXZA 1004e490     LIBCMT:hooks.obj
 0003:000154c0       ?pArgList@UnDecorator@@0PAVReplicator@@A 1004e4c0     LIBCMT:undname.obj
 0003:000154c4       ?pZNameList@UnDecorator@@0PAVReplicator@@A 1004e4c4     LIBCMT:undname.obj
 0003:000154c8       ?pTemplateArgList@UnDecorator@@0PAVReplicator@@A 1004e4c8     LIBCMT:undname.obj
 0003:000154cc       ?gName@UnDecorator@@0PBDB  1004e4cc     LIBCMT:undname.obj
 0003:000154d0       ?name@UnDecorator@@0PBDB   1004e4d0     LIBCMT:undname.obj
 0003:000154d4       ?outputString@UnDecorator@@0PADA 1004e4d4     LIBCMT:undname.obj
 0003:000154d8       ?maxStringLength@UnDecorator@@0HA 1004e4d8     LIBCMT:undname.obj
 0003:000154dc       ?disableFlags@UnDecorator@@0KA 1004e4dc     LIBCMT:undname.obj
 0003:000154e0       ?m_pGetParameter@UnDecorator@@0P6APADJ@ZA 1004e4e0     LIBCMT:undname.obj
 0003:000154e4       ?fExplicitTemplateParams@UnDecorator@@0_NA 1004e4e4     LIBCMT:undname.obj
 0003:000154e5       ?fGetTemplateArgumentList@UnDecorator@@0_NA 1004e4e5     LIBCMT:undname.obj
 0003:000154fc       __newmode                  1004e4fc     LIBCMT:_newmode.obj
 0003:00015500       ___lconv_static_null       1004e500     LIBCMT:lconv.obj
 0003:00015504       ___lconv_static_W_null     1004e504     LIBCMT:lconv.obj
 0003:00015838       __debugger_hook_dummy      1004e838     <common>
 0003:0001583c       ___use_sse2_mathfcns       1004e83c     <common>
 0003:00015840       __pmatherr                 1004e840     <common>
 0003:00015844       __nhandle                  1004e844     <common>
 0003:00015860       ___pioinfo                 1004e860     <common>
 0003:00015960       ___piob                    1004e960     <common>
 0003:00015980       __bufin                    1004e980     <common>
 0003:00016980       __nstream                  1004f980     <common>
 0003:00016984       __pDestructExceptionObject 1004f984     <common>
 0003:00016988       ___env_initialized         1004f988     <common>
 0003:0001698c       ___onexitend               1004f98c     <common>
 0003:00016990       ___onexitbegin             1004f990     <common>
 0003:00016994       ___mbctype_initialized     1004f994     <common>
 0003:00016998       ___dyn_tls_init_callback   1004f998     <common>
 0003:0001699c       ___sse2_available          1004f99c     <common>
 0003:000169a0       __acmdln                   1004f9a0     <common>

 entry point at        0001:0000b1dc

 Static symbols

 0001:00005cd0       ?__CreateCDeferredExtensionIDeferredExtension_interface@@YAPAXXZ 10006cd0 f   IDeferredExt.obj
 0001:0000a8eb       __onexit_nolock            1000b8eb f   LIBCMT:onexit.obj
 0001:0000b0e6       ___DllMainCRTStartup       1000c0e6 f   LIBCMT:dllcrt0.obj
 0001:0000b1ff       _vscan_fn                  1000c1ff f   LIBCMT:sscanf.obj
 0001:0000d3a4       __shift                    1000e3a4 f   LIBCMT:cvt.obj
 0001:0000d3e9       __cftoe2_l                 1000e3e9 f   LIBCMT:cvt.obj
 0001:0000d9a7       __cftof2_l                 1000e9a7 f   LIBCMT:cvt.obj
 0001:0000e451       _doexit                    1000f451 f   LIBCMT:crt0dat.obj
 0001:0000edbe       _write_char                1000fdbe f   LIBCMT:output.obj
 0001:0000edf1       _write_string              1000fdf1 f   LIBCMT:output.obj
 0001:000107f5       _parse_cmdline             100117f5 f   LIBCMT:stdargv.obj
 0001:00010dfb       ___check_float_string      10011dfb f   LIBCMT:input.obj
 0001:00010e52       __hextodec                 10011e52 f   LIBCMT:input.obj
 0001:00010e72       __inc                      10011e72 f   LIBCMT:input.obj
 0001:00010e88       __whiteout                 10011e88 f   LIBCMT:input.obj
 0001:00011eb6       ?CPtoLCID@@YAHH@Z          10012eb6 f   LIBCMT:mbctype.obj
 0001:00011ee5       ?setSBCS@@YAXPAUthreadmbcinfostruct@@@Z 10012ee5 f   LIBCMT:mbctype.obj
 0001:00011f49       ?setSBUpLow@@YAXPAUthreadmbcinfostruct@@@Z 10012f49 f   LIBCMT:mbctype.obj
 0001:0001217d       ?getSystemCP@@YAHH@Z       1001317d f   LIBCMT:mbctype.obj
 0001:000132a1       ?__crtLCMapStringA_stat@@YAHPAUlocaleinfo_struct@@KKPBDHPADHHH@Z 100142a1 f   LIBCMT:a_map.obj
 0001:0001655b       _siglookup                 1001755b f   LIBCMT:winsig.obj
 0001:00016940       __unwind_handler4          10017940 f   LIBCMT:exsup4.obj
 0001:00016eb9       _flsall                    10017eb9 f   LIBCMT:fflush.obj
 0001:00017192       ?x_ismbbtype_l@@YAHPAUlocaleinfo_struct@@IHH@Z 10018192 f   LIBCMT:ismbbyte.obj
 0001:00017532       ?__crtGetStringTypeA_stat@@YAHPAUlocaleinfo_struct@@KPBDHPAGHHH@Z 10018532 f   LIBCMT:a_str.obj
 0001:0001ac38       __hw_cw                    1001bc38 f   LIBCMT:_ieee87_.obj
 0001:0001acc6       ___hw_cw_sse2              1001bcc6 f   LIBCMT:_ieee87_.obj
 0001:0001b0a0       __unwind_handler           1001c0a0 f   LIBCMT:exsup.obj
 0001:0001be70       ??__Emat_fullbright@@YAXXZ 1001ce70 f   BaseVSShader.obj
 0001:0001bea0       ??__Es_ShaderParams@GAUSSIAN_BLUR_6@@YAXXZ 1001cea0 f   blur.obj
 0001:0001beb0       ??__EISVERTICAL@GAUSSIAN_BLUR_6@@YAXXZ 1001ceb0 f   blur.obj
 0001:0001bed0       ??__Es_ShaderInstance@GAUSSIAN_BLUR_6@@YAXXZ 1001ced0 f   blur.obj
 0001:0001bef0       ??__Es_ShaderParams@DEBUG_LIGHTING_CTRL@@YAXXZ 1001cef0 f   debug_lightingctrl.obj
 0001:0001bf00       ??__Es_ShaderInstance@DEBUG_LIGHTING_CTRL@@YAXXZ 1001cf00 f   debug_lightingctrl.obj
 0001:0001bf20       ??__Es_ShaderParams@DEBUG_RADIOSITY_GRID@@YAXXZ 1001cf20 f   debug_radiosity_grid.obj
 0001:0001bf30       ??__Es_ShaderInstance@DEBUG_RADIOSITY_GRID@@YAXXZ 1001cf30 f   debug_radiosity_grid.obj
 0001:0001bf50       ??__Es_ShaderParams@DEBUG_SHADOW@@YAXXZ 1001cf50 f   debug_shadow.obj
 0001:0001bf60       ??__Es_ShaderInstance@DEBUG_SHADOW@@YAXXZ 1001cf60 f   debug_shadow.obj
 0001:0001bf80       ??__Es_ShaderParams@DEFERRED_BRUSH@@YAXXZ 1001cf80 f   deferred_brush.obj
 0001:0001bf90       ??__EBUMPMAP@DEFERRED_BRUSH@@YAXXZ 1001cf90 f   deferred_brush.obj
 0001:0001bfb0       ??__ESSBUMP@DEFERRED_BRUSH@@YAXXZ 1001cfb0 f   deferred_brush.obj
 0001:0001bfd0       ??__ELITFACE@DEFERRED_BRUSH@@YAXXZ 1001cfd0 f   deferred_brush.obj
 0001:0001c000       ??__EPHONG_SCALE@DEFERRED_BRUSH@@YAXXZ 1001d000 f   deferred_brush.obj
 0001:0001c020       ??__EPHONG_EXP@DEFERRED_BRUSH@@YAXXZ 1001d020 f   deferred_brush.obj
 0001:0001c040       ??__EPHONG_EXP2@DEFERRED_BRUSH@@YAXXZ 1001d040 f   deferred_brush.obj
 0001:0001c060       ??__EPHONG_MAP@DEFERRED_BRUSH@@YAXXZ 1001d060 f   deferred_brush.obj
 0001:0001c080       ??__EPHONG_FRESNEL@DEFERRED_BRUSH@@YAXXZ 1001d080 f   deferred_brush.obj
 0001:0001c0a0       ??__EFRESNELRANGES@DEFERRED_BRUSH@@YAXXZ 1001d0a0 f   deferred_brush.obj
 0001:0001c0c0       ??__EALPHATESTREFERENCE@DEFERRED_BRUSH@@YAXXZ 1001d0c0 f   deferred_brush.obj
 0001:0001c0e0       ??__EENVMAP@DEFERRED_BRUSH@@YAXXZ 1001d0e0 f   deferred_brush.obj
 0001:0001c100       ??__EENVMAPTINT@DEFERRED_BRUSH@@YAXXZ 1001d100 f   deferred_brush.obj
 0001:0001c120       ??__EENVMAPCONTRAST@DEFERRED_BRUSH@@YAXXZ 1001d120 f   deferred_brush.obj
 0001:0001c140       ??__EENVMAPSATURATION@DEFERRED_BRUSH@@YAXXZ 1001d140 f   deferred_brush.obj
 0001:0001c160       ??__EENVMAPMASK@DEFERRED_BRUSH@@YAXXZ 1001d160 f   deferred_brush.obj
 0001:0001c180       ??__ESELFILLUMTINT@DEFERRED_BRUSH@@YAXXZ 1001d180 f   deferred_brush.obj
 0001:0001c1a0       ??__ESELFILLUM_ENVMAPMASK_ALPHA@DEFERRED_BRUSH@@YAXXZ 1001d1a0 f   deferred_brush.obj
 0001:0001c1c0       ??__ESELFILLUMFRESNEL@DEFERRED_BRUSH@@YAXXZ 1001d1c0 f   deferred_brush.obj
 0001:0001c1e0       ??__ESELFILLUMMASK@DEFERRED_BRUSH@@YAXXZ 1001d1e0 f   deferred_brush.obj
 0001:0001c200       ??__EBASETEXTURE2@DEFERRED_BRUSH@@YAXXZ 1001d200 f   deferred_brush.obj
 0001:0001c220       ??__EBUMPMAP2@DEFERRED_BRUSH@@YAXXZ 1001d220 f   deferred_brush.obj
 0001:0001c240       ??__EENVMAPMASK2@DEFERRED_BRUSH@@YAXXZ 1001d240 f   deferred_brush.obj
 0001:0001c260       ??__EBLENDMODULATETEXTURE@DEFERRED_BRUSH@@YAXXZ 1001d260 f   deferred_brush.obj
 0001:0001c280       ??__EBLENDMASKTRANSFORM@DEFERRED_BRUSH@@YAXXZ 1001d280 f   deferred_brush.obj
 0001:0001c2a0       ??__EMULTIBLEND@DEFERRED_BRUSH@@YAXXZ 1001d2a0 f   deferred_brush.obj
 0001:0001c2c0       ??__EBASETEXTURE3@DEFERRED_BRUSH@@YAXXZ 1001d2c0 f   deferred_brush.obj
 0001:0001c2e0       ??__EBASETEXTURE4@DEFERRED_BRUSH@@YAXXZ 1001d2e0 f   deferred_brush.obj
 0001:0001c300       ??__EBUMPMAP3@DEFERRED_BRUSH@@YAXXZ 1001d300 f   deferred_brush.obj
 0001:0001c320       ??__EBUMPMAP4@DEFERRED_BRUSH@@YAXXZ 1001d320 f   deferred_brush.obj
 0001:0001c340       ??__EBLENDMODULATETEXTURE2@DEFERRED_BRUSH@@YAXXZ 1001d340 f   deferred_brush.obj
 0001:0001c360       ??__EBLENDMODULATETEXTURE3@DEFERRED_BRUSH@@YAXXZ 1001d360 f   deferred_brush.obj
 0001:0001c380       ??__EBLENDMASKTRANSFORM2@DEFERRED_BRUSH@@YAXXZ 1001d380 f   deferred_brush.obj
 0001:0001c3a0       ??__EBLENDMASKTRANSFORM3@DEFERRED_BRUSH@@YAXXZ 1001d3a0 f   deferred_brush.obj
 0001:0001c3c0       ??__Es_ShaderInstance@DEFERRED_BRUSH@@YAXXZ 1001d3c0 f   deferred_brush.obj
 0001:0001c3e0       ??__Es_ShaderParams@DEFERRED_DECALMODULATE@@YAXXZ 1001d3e0 f   deferred_decalModulate.obj
 0001:0001c3f0       ??__EFOGEXPONENT@DEFERRED_DECALMODULATE@@YAXXZ 1001d3f0 f   deferred_decalModulate.obj
 0001:0001c410       ??__EFOGSCALE@DEFERRED_DECALMODULATE@@YAXXZ 1001d410 f   deferred_decalModulate.obj
 0001:0001c430       ??__Es_ShaderInstance@DEFERRED_DECALMODULATE@@YAXXZ 1001d430 f   deferred_decalModulate.obj
 0001:0001c450       ??__Es_ShaderParams@DEFERRED_MODEL@@YAXXZ 1001d450 f   deferred_model.obj
 0001:0001c460       ??__EBUMPMAP@DEFERRED_MODEL@@YAXXZ 1001d460 f   deferred_model.obj
 0001:0001c480       ??__ELITFACE@DEFERRED_MODEL@@YAXXZ 1001d480 f   deferred_model.obj
 0001:0001c4a0       ??__EPHONG_SCALE@DEFERRED_MODEL@@YAXXZ 1001d4a0 f   deferred_model.obj
 0001:0001c4c0       ??__EPHONG_EXP@DEFERRED_MODEL@@YAXXZ 1001d4c0 f   deferred_model.obj
 0001:0001c4e0       ??__EPHONG_MAP@DEFERRED_MODEL@@YAXXZ 1001d4e0 f   deferred_model.obj
 0001:0001c500       ??__EPHONG_FRESNEL@DEFERRED_MODEL@@YAXXZ 1001d500 f   deferred_model.obj
 0001:0001c520       ??__EFRESNELRANGES@DEFERRED_MODEL@@YAXXZ 1001d520 f   deferred_model.obj
 0001:0001c540       ??__EALPHATESTREFERENCE@DEFERRED_MODEL@@YAXXZ 1001d540 f   deferred_model.obj
 0001:0001c560       ??__EENVMAP@DEFERRED_MODEL@@YAXXZ 1001d560 f   deferred_model.obj
 0001:0001c580       ??__EENVMAPTINT@DEFERRED_MODEL@@YAXXZ 1001d580 f   deferred_model.obj
 0001:0001c5a0       ??__EENVMAPCONTRAST@DEFERRED_MODEL@@YAXXZ 1001d5a0 f   deferred_model.obj
 0001:0001c5c0       ??__EENVMAPSATURATION@DEFERRED_MODEL@@YAXXZ 1001d5c0 f   deferred_model.obj
 0001:0001c5e0       ??__EENVMAPFRESNEL@DEFERRED_MODEL@@YAXXZ 1001d5e0 f   deferred_model.obj
 0001:0001c600       ??__EENVMAPMASK@DEFERRED_MODEL@@YAXXZ 1001d600 f   deferred_model.obj
 0001:0001c620       ??__ERIMLIGHT@DEFERRED_MODEL@@YAXXZ 1001d620 f   deferred_model.obj
 0001:0001c640       ??__ERIMLIGHTEXPONENT@DEFERRED_MODEL@@YAXXZ 1001d640 f   deferred_model.obj
 0001:0001c660       ??__ERIMLIGHTALBEDOSCALE@DEFERRED_MODEL@@YAXXZ 1001d660 f   deferred_model.obj
 0001:0001c680       ??__ERIMLIGHTTINT@DEFERRED_MODEL@@YAXXZ 1001d680 f   deferred_model.obj
 0001:0001c6a0       ??__ERIMLIGHT_MODULATE_BY_LIGHT@DEFERRED_MODEL@@YAXXZ 1001d6a0 f   deferred_model.obj
 0001:0001c6c0       ??__ESELFILLUMTINT@DEFERRED_MODEL@@YAXXZ 1001d6c0 f   deferred_model.obj
 0001:0001c6e0       ??__ESELFILLUM_ENVMAPMASK_ALPHA@DEFERRED_MODEL@@YAXXZ 1001d6e0 f   deferred_model.obj
 0001:0001c700       ??__ESELFILLUMFRESNEL@DEFERRED_MODEL@@YAXXZ 1001d700 f   deferred_model.obj
 0001:0001c720       ??__ESELFILLUMMASK@DEFERRED_MODEL@@YAXXZ 1001d720 f   deferred_model.obj
 0001:0001c740       ??__Es_ShaderInstance@DEFERRED_MODEL@@YAXXZ 1001d740 f   deferred_model.obj
 0001:0001c760       ??__Edeferred_radiosity_multiplier@@YAXXZ 1001d760 f   deferred_utility.obj
 0001:0001c790       ??__Ebuilding_cubemaps@@YAXXZ 1001d790 f   defpass_composite.obj
 0001:0001c7c0       ??__E__g_defExt@@YAXXZ     1001d7c0 f   IDeferredExt.obj
 0001:0001c7e0       ??__E__g_CreateCDeferredExtensionIDeferredExtension_reg@@YAXXZ 1001d7e0 f   IDeferredExt.obj
 0001:0001c800       ??__Es_ShaderParams@LIGHTING_GLOBAL@@YAXXZ 1001d800 f   lighting_global.obj
 0001:0001c810       ??__Es_ShaderInstance@LIGHTING_GLOBAL@@YAXXZ 1001d810 f   lighting_global.obj
 0001:0001c830       ??__Es_ShaderParams@LIGHTING_WORLD@@YAXXZ 1001d830 f   lighting_world.obj
 0001:0001c840       ??__ELIGHTTYPE@LIGHTING_WORLD@@YAXXZ 1001d840 f   lighting_world.obj
 0001:0001c860       ??__EWORLDPROJECTION@LIGHTING_WORLD@@YAXXZ 1001d860 f   lighting_world.obj
 0001:0001c880       ??__Es_ShaderInstance@LIGHTING_WORLD@@YAXXZ 1001d880 f   lighting_world.obj
 0001:0001c8a0       ??__Es_ShaderParams@LIGHTING_VOLUME@@YAXXZ 1001d8a0 f   lighting_volume.obj
 0001:0001c8b0       ??__ELIGHTTYPE@LIGHTING_VOLUME@@YAXXZ 1001d8b0 f   lighting_volume.obj
 0001:0001c8d0       ??__EWORLDPROJECTION@LIGHTING_VOLUME@@YAXXZ 1001d8d0 f   lighting_volume.obj
 0001:0001c8f0       ??__Es_ShaderInstance@LIGHTING_VOLUME@@YAXXZ 1001d8f0 f   lighting_volume.obj
 0001:0001c910       ??__Es_ShaderParams@RADIOSITY_BLEND@@YAXXZ 1001d910 f   radiosity_blend.obj
 0001:0001c920       ??__Es_ShaderInstance@RADIOSITY_BLEND@@YAXXZ 1001d920 f   radiosity_blend.obj
 0001:0001c940       ??__Es_ShaderParams@RADIOSITY_GLOBAL@@YAXXZ 1001d940 f   radiosity_global.obj
 0001:0001c950       ??__Es_ShaderInstance@RADIOSITY_GLOBAL@@YAXXZ 1001d950 f   radiosity_global.obj
 0001:0001c970       ??__Es_ShaderParams@RADIOSITY_PROPAGATE@@YAXXZ 1001d970 f   radiosity_propagate.obj
 0001:0001c980       ??__ENORMALMAP@RADIOSITY_PROPAGATE@@YAXXZ 1001d980 f   radiosity_propagate.obj
 0001:0001c9a0       ??__EBLUR@RADIOSITY_PROPAGATE@@YAXXZ 1001d9a0 f   radiosity_propagate.obj
 0001:0001c9c0       ??__Es_ShaderInstance@RADIOSITY_PROPAGATE@@YAXXZ 1001d9c0 f   radiosity_propagate.obj
 0001:0001c9e0       ??__Es_ShaderParams@SCREENSPACE_COMBINE@@YAXXZ 1001d9e0 f   screenspace_combine.obj
 0001:0001c9f0       ??__Es_ShaderInstance@SCREENSPACE_COMBINE@@YAXXZ 1001d9f0 f   screenspace_combine.obj
 0001:0001ca10       ??__Es_ShaderParams@SCREENSPACE_SHADING@@YAXXZ 1001da10 f   screenspace_shading.obj
 0001:0001ca20       ??__Es_ShaderInstance@SCREENSPACE_SHADING@@YAXXZ 1001da20 f   screenspace_shading.obj
 0001:0001ca40       ??__Es_ShaderParams@VOLUME_BLEND@@YAXXZ 1001da40 f   volume_blend.obj
 0001:0001ca50       ??__Es_ShaderInstance@VOLUME_BLEND@@YAXXZ 1001da50 f   volume_blend.obj
 0001:0001ca70       ??__Es_ShaderParams@VOLUME_PREPASS@@YAXXZ 1001da70 f   volume_prepass.obj
 0001:0001ca80       ??__Es_ShaderInstance@VOLUME_PREPASS@@YAXXZ 1001da80 f   volume_prepass.obj
 0001:0001caa0       ??__Es_EmptyConVar@@YAXXZ  1001daa0 f   tier1:convar.obj
 0001:0001cbd0       ??__Es_StringCharConversion@@YAXXZ 1001dbd0 f   tier1:utlbuffer.obj
 0001:0001cc30       ??__Es_NoEscConversion@@YAXXZ 1001dc30 f   tier1:utlbuffer.obj
 0001:0001cc60       ??__Emat_fullbright@@YAXXZ 1001dc60 f   shaderlib:BaseShader.obj
 0001:0001cc90       ??__E__g_CreateIShaderDLLInternal_reg@@YAXXZ 1001dc90 f   shaderlib:ShaderDLL.obj
 0001:0001ccb0       ??__Fmat_fullbright@@YAXXZ 1001dcb0 f   BaseVSShader.obj
 0001:0001ccc0       ??__Fs_ShaderParams@GAUSSIAN_BLUR_6@@YAXXZ 1001dcc0 f   blur.obj
 0001:0001ccd0       ??__Fs_ShaderParams@DEBUG_LIGHTING_CTRL@@YAXXZ 1001dcd0 f   debug_lightingctrl.obj
 0001:0001cce0       ??__Fs_ShaderParams@DEBUG_RADIOSITY_GRID@@YAXXZ 1001dce0 f   debug_radiosity_grid.obj
 0001:0001ccf0       ??__Fs_ShaderParams@DEBUG_SHADOW@@YAXXZ 1001dcf0 f   debug_shadow.obj
 0001:0001cd00       ??__Fs_ShaderParams@DEFERRED_BRUSH@@YAXXZ 1001dd00 f   deferred_brush.obj
 0001:0001cd10       ??__Fs_ShaderParams@DEFERRED_DECALMODULATE@@YAXXZ 1001dd10 f   deferred_decalModulate.obj
 0001:0001cd20       ??__Fs_ShaderParams@DEFERRED_MODEL@@YAXXZ 1001dd20 f   deferred_model.obj
 0001:0001cd30       ??__Fdeferred_radiosity_multiplier@@YAXXZ 1001dd30 f   deferred_utility.obj
 0001:0001cd40       ??__Fbuilding_cubemaps@@YAXXZ 1001dd40 f   defpass_composite.obj
 0001:0001cd50       ??__F__g_defExt@@YAXXZ     1001dd50 f   IDeferredExt.obj
 0001:0001cd60       ??__Fs_ShaderParams@LIGHTING_GLOBAL@@YAXXZ 1001dd60 f   lighting_global.obj
 0001:0001cd70       ??__Fs_ShaderParams@LIGHTING_WORLD@@YAXXZ 1001dd70 f   lighting_world.obj
 0001:0001cd80       ??__Fs_ShaderParams@LIGHTING_VOLUME@@YAXXZ 1001dd80 f   lighting_volume.obj
 0001:0001cd90       ??__Fs_ShaderParams@RADIOSITY_BLEND@@YAXXZ 1001dd90 f   radiosity_blend.obj
 0001:0001cda0       ??__Fs_ShaderParams@RADIOSITY_GLOBAL@@YAXXZ 1001dda0 f   radiosity_global.obj
 0001:0001cdb0       ??__Fs_ShaderParams@RADIOSITY_PROPAGATE@@YAXXZ 1001ddb0 f   radiosity_propagate.obj
 0001:0001cdc0       ??__Fs_ShaderParams@SCREENSPACE_COMBINE@@YAXXZ 1001ddc0 f   screenspace_combine.obj
 0001:0001cdd0       ??__Fs_ShaderParams@SCREENSPACE_SHADING@@YAXXZ 1001ddd0 f   screenspace_shading.obj
 0001:0001cde0       ??__Fs_ShaderParams@VOLUME_BLEND@@YAXXZ 1001dde0 f   volume_blend.obj
 0001:0001cdf0       ??__Fs_ShaderParams@VOLUME_PREPASS@@YAXXZ 1001ddf0 f   volume_prepass.obj
 0001:0001ce00       ??__Fs_EmptyConVar@@YAXXZ  1001de00 f   tier1:convar.obj
 0001:0001ce50       ??__Fmat_fullbright@@YAXXZ 1001de50 f   shaderlib:BaseShader.obj
 0001:0001ce5a       ??__Fnomem@?5???2@YAPAXI@Z@YAXXZ 1001de5a f   LIBCMT:new.obj
